# SymbolsHelper-Confirmed: 6.0.0 amd64 armel armhf riscv64
libKF6KIOWidgets.so.6 libkf6kiowidgets6 #MINVER#, kio6
* Build-Depends-Package: libkf6kio-dev
 _ZGVZN9QMetaType21registerConverterImplI5QListI4QUrlE9QIterableI13QMetaSequenceEEEbSt8functionIFbPKvPvEES_S_E10unregister@Base 6.0.0
 _ZGVZN9QMetaType21registerConverterImplI5QListIN17KFileItemDelegate11InformationEE9QIterableI13QMetaSequenceEEEbSt8functionIFbPKvPvEES_S_E10unregister@Base 6.0.0
 _ZGVZN9QMetaType23registerMutableViewImplI5QListI4QUrlE9QIterableI13QMetaSequenceEEEbSt8functionIFbPvS8_EES_S_E10unregister@Base 6.0.0
 _ZGVZN9QMetaType23registerMutableViewImplI5QListIN17KFileItemDelegate11InformationEE9QIterableI13QMetaSequenceEEEbSt8functionIFbPvS9_EES_S_E10unregister@Base 6.0.0
 _ZN10KDirLister10jobStartedEPN3KIO7ListJobE@Base 6.0.0
 _ZN10KDirLister10mainWindowEv@Base 6.0.0
 _ZN10KDirLister11qt_metacallEN11QMetaObject4CallEiPPv@Base 6.0.0
 _ZN10KDirLister11qt_metacastEPKc@Base 6.0.0
 _ZN10KDirLister13setMainWindowEP7QWidget@Base 6.0.0
 _ZN10KDirLister16staticMetaObjectE@Base 6.0.0
 _ZN10KDirListerC1EP7QObject@Base 6.0.0
 _ZN10KDirListerC2EP7QObject@Base 6.0.0
 _ZN10KDirListerD0Ev@Base 6.0.0
 _ZN10KDirListerD1Ev@Base 6.0.0
 _ZN10KDirListerD2Ev@Base 6.0.0
 _ZN12KUrlComboBox11qt_metacallEN11QMetaObject4CallEiPPv@Base 6.0.0
 _ZN12KUrlComboBox11qt_metacastEPKc@Base 6.0.0
 _ZN12KUrlComboBox11setDefaultsEv@Base 6.0.0
 _ZN12KUrlComboBox11setMaxItemsEi@Base 6.0.0
 _ZN12KUrlComboBox12urlActivatedERK4QUrl@Base 6.0.0
 _ZN12KUrlComboBox13addDefaultUrlERK4QUrlRK5QIconRK7QString@Base 6.0.0
 _ZN12KUrlComboBox13addDefaultUrlERK4QUrlRK7QString@Base 6.0.0
 _ZN12KUrlComboBox14mouseMoveEventEP11QMouseEvent@Base 6.0.0
 _ZN12KUrlComboBox15mousePressEventEP11QMouseEvent@Base 6.0.0
 _ZN12KUrlComboBox16staticMetaObjectE@Base 6.0.0
 _ZN12KUrlComboBox19setCompletionObjectEP11KCompletionb@Base 6.0.0
 _ZN12KUrlComboBox6setUrlERK4QUrl@Base 6.0.0
 _ZN12KUrlComboBox7setUrlsERK5QListI7QStringE@Base 6.0.0
 _ZN12KUrlComboBox7setUrlsERK5QListI7QStringENS_17OverLoadResolvingE@Base 6.0.0
 _ZN12KUrlComboBox9removeUrlERK4QUrlb@Base 6.0.0
 _ZN12KUrlComboBoxC1ENS_4ModeEP7QWidget@Base 6.0.0
 _ZN12KUrlComboBoxC1ENS_4ModeEbP7QWidget@Base 6.0.0
 _ZN12KUrlComboBoxC2ENS_4ModeEP7QWidget@Base 6.0.0
 _ZN12KUrlComboBoxC2ENS_4ModeEbP7QWidget@Base 6.0.0
 _ZN12KUrlComboBoxD0Ev@Base 6.0.0
 _ZN12KUrlComboBoxD1Ev@Base 6.0.0
 _ZN12KUrlComboBoxD2Ev@Base 6.0.0
 _ZN13KUrlRequester10textEditedERK7QString@Base 6.0.0
 _ZN13KUrlRequester11changeEventEP6QEvent@Base 6.0.0
 _ZN13KUrlRequester11eventFilterEP7QObjectP6QEvent@Base 6.0.0
 _ZN13KUrlRequester11qt_metacallEN11QMetaObject4CallEiPPv@Base 6.0.0
 _ZN13KUrlRequester11qt_metacastEPKc@Base 6.0.0
 _ZN13KUrlRequester11setStartDirERK4QUrl@Base 6.0.0
 _ZN13KUrlRequester11textChangedERK7QString@Base 6.0.0
 _ZN13KUrlRequester11urlSelectedERK4QUrl@Base 6.0.0
 _ZN13KUrlRequester12customEditorEv@Base 6.0.0
 _ZN13KUrlRequester13returnPressedERK7QString@Base 6.0.0
 _ZN13KUrlRequester13setAcceptModeEN11QFileDialog10AcceptModeE@Base 6.0.0
 _ZN13KUrlRequester13setNameFilterERK7QString@Base 6.0.0
 _ZN13KUrlRequester14openFileDialogEPS_@Base 6.0.0
 _ZN13KUrlRequester14setNameFiltersERK5QListI7QStringE@Base 6.0.0
 _ZN13KUrlRequester16staticMetaObjectE@Base 6.0.0
 _ZN13KUrlRequester18setMimeTypeFiltersERK5QListI7QStringE@Base 6.0.0
 _ZN13KUrlRequester18setPlaceholderTextERK7QString@Base 6.0.0
 _ZN13KUrlRequester21setFileDialogModalityEN2Qt14WindowModalityE@Base 6.0.0
 _ZN13KUrlRequester5clearEv@Base 6.0.0
 _ZN13KUrlRequester6setUrlERK4QUrl@Base 6.0.0
 _ZN13KUrlRequester7setModeE6QFlagsIN5KFile4ModeEE@Base 6.0.0
 _ZN13KUrlRequester7setTextERK7QString@Base 6.0.0
 _ZN13KUrlRequesterC1EP7QWidget@Base 6.0.0
 _ZN13KUrlRequesterC1EP7QWidgetS1_@Base 6.0.0
 _ZN13KUrlRequesterC1ERK4QUrlP7QWidget@Base 6.0.0
 _ZN13KUrlRequesterC2EP7QWidget@Base 6.0.0
 _ZN13KUrlRequesterC2EP7QWidgetS1_@Base 6.0.0
 _ZN13KUrlRequesterC2ERK4QUrlP7QWidget@Base 6.0.0
 _ZN13KUrlRequesterD0Ev@Base 6.0.0
 _ZN13KUrlRequesterD1Ev@Base 6.0.0
 _ZN13KUrlRequesterD2Ev@Base 6.0.0
 _ZN13QMetaSequence12MetaSequenceI5QListI4QUrlEE5valueE@Base 6.0.0
 _ZN13QMetaSequence12MetaSequenceI5QListIN17KFileItemDelegate11InformationEEE5valueE@Base 6.0.0
 _ZN14KSslInfoDialog10setSslInfoERK5QListI15QSslCertificateERK7QStringS7_S7_S7_iiRKS0_IS0_IN9QSslError8SslErrorEEE@Base 6.0.0
 _ZN14KSslInfoDialog11qt_metacallEN11QMetaObject4CallEiPPv@Base 6.0.0
 _ZN14KSslInfoDialog11qt_metacastEPKc@Base 6.0.0
 _ZN14KSslInfoDialog16staticMetaObjectE@Base 6.0.0
 _ZN14KSslInfoDialog20setMainPartEncryptedEb@Base 6.0.0
 _ZN14KSslInfoDialog26setAuxiliaryPartsEncryptedEb@Base 6.0.0
 _ZN14KSslInfoDialog27certificateErrorsFromStringERK7QString@Base 6.0.0
 _ZN14KSslInfoDialogC1EP7QWidget@Base 6.0.0
 _ZN14KSslInfoDialogC2EP7QWidget@Base 6.0.0
 _ZN14KSslInfoDialogD0Ev@Base 6.0.0
 _ZN14KSslInfoDialogD1Ev@Base 6.0.0
 _ZN14KSslInfoDialogD2Ev@Base 6.0.0
 _ZN14KUrlCompletion11qt_metacallEN11QMetaObject4CallEiPPv@Base 6.0.0
 _ZN14KUrlCompletion11qt_metacastEPKc@Base 6.0.0
 _ZN14KUrlCompletion12replacedPathERK7QStringbb@Base 6.0.0
 _ZN14KUrlCompletion13setReplaceEnvEb@Base 6.0.0
 _ZN14KUrlCompletion14makeCompletionERK7QString@Base 6.0.0
 _ZN14KUrlCompletion14setReplaceHomeEb@Base 6.0.0
 _ZN14KUrlCompletion16staticMetaObjectE@Base 6.0.0
 _ZN14KUrlCompletion18setMimeTypeFiltersERK5QListI7QStringE@Base 6.0.0
 _ZN14KUrlCompletion4stopEv@Base 6.0.0
 _ZN14KUrlCompletion6setDirERK4QUrl@Base 6.0.0
 _ZN14KUrlCompletion7setModeENS_4ModeE@Base 6.0.0
 _ZN14KUrlCompletionC1ENS_4ModeE@Base 6.0.0
 _ZN14KUrlCompletionC1Ev@Base 6.0.0
 _ZN14KUrlCompletionC2ENS_4ModeE@Base 6.0.0
 _ZN14KUrlCompletionC2Ev@Base 6.0.0
 _ZN14KUrlCompletionD0Ev@Base 6.0.0
 _ZN14KUrlCompletionD1Ev@Base 6.0.0
 _ZN14KUrlCompletionD2Ev@Base 6.0.0
 _ZN15KOpenWithDialog11eventFilterEP7QObjectP6QEvent@Base 6.0.0
 _ZN15KOpenWithDialog11qt_metacallEN11QMetaObject4CallEiPPv@Base 6.0.0
 _ZN15KOpenWithDialog11qt_metacastEPKc@Base 6.0.0
 _ZN15KOpenWithDialog12slotSelectedERK7QStringS2_@Base 6.0.0
 _ZN15KOpenWithDialog15slotHighlightedERK7QStringS2_@Base 6.0.0
 _ZN15KOpenWithDialog15slotTextChangedEv@Base 6.0.0
 _ZN15KOpenWithDialog16staticMetaObjectE@Base 6.0.0
 _ZN15KOpenWithDialog17hideNoCloseOnExitEv@Base 6.0.0
 _ZN15KOpenWithDialog17hideRunInTerminalEv@Base 6.0.0
 _ZN15KOpenWithDialog19slotTerminalToggledEb@Base 6.0.0
 _ZN15KOpenWithDialog22setSaveNewApplicationsEb@Base 6.0.0
 _ZN15KOpenWithDialog6acceptEv@Base 6.0.0
 _ZN15KOpenWithDialogC1EP7QWidget@Base 6.0.0
 _ZN15KOpenWithDialogC1ERK5QListI4QUrlEP7QWidget@Base 6.0.0
 _ZN15KOpenWithDialogC1ERK5QListI4QUrlERK7QStringS7_P7QWidget@Base 6.0.0
 _ZN15KOpenWithDialogC1ERK5QListI4QUrlERK7QStringS7_S7_P7QWidget@Base 6.0.0
 _ZN15KOpenWithDialogC1ERK7QStringS2_P7QWidget@Base 6.0.0
 _ZN15KOpenWithDialogC2EP7QWidget@Base 6.0.0
 _ZN15KOpenWithDialogC2ERK5QListI4QUrlEP7QWidget@Base 6.0.0
 _ZN15KOpenWithDialogC2ERK5QListI4QUrlERK7QStringS7_P7QWidget@Base 6.0.0
 _ZN15KOpenWithDialogC2ERK5QListI4QUrlERK7QStringS7_S7_P7QWidget@Base 6.0.0
 _ZN15KOpenWithDialogC2ERK7QStringS2_P7QWidget@Base 6.0.0
 _ZN15KOpenWithDialogD0Ev@Base 6.0.0
 _ZN15KOpenWithDialogD1Ev@Base 6.0.0
 _ZN15KOpenWithDialogD2Ev@Base 6.0.0
 _ZN16KFileItemActions11qt_metacallEN11QMetaObject4CallEiPPv@Base 6.0.0
 _ZN16KFileItemActions11qt_metacastEPKc@Base 6.0.0
 _ZN16KFileItemActions12addActionsToEP5QMenu6QFlagsINS_16MenuActionSourceEERK5QListIP7QActionERKS5_I7QStringE@Base 6.0.0
 _ZN16KFileItemActions15setParentWidgetEP7QWidget@Base 6.0.0
 _ZN16KFileItemActions16staticMetaObjectE@Base 6.0.0
 _ZN16KFileItemActions21setItemListPropertiesERK23KFileItemListProperties@Base 6.0.0
 _ZN16KFileItemActions22associatedApplicationsERK5QListI7QStringE@Base 6.0.0
 _ZN16KFileItemActions23insertOpenWithActionsToEP7QActionP5QMenuRK5QListI7QStringE@Base 6.0.0
 _ZN16KFileItemActions24runPreferredApplicationsERK13KFileItemList@Base 6.0.0
 _ZN16KFileItemActions28openWithDialogAboutToBeShownEv@Base 6.0.0
 _ZN16KFileItemActions5errorERK7QString@Base 6.0.0
 _ZN16KFileItemActionsC1EP7QObject@Base 6.0.0
 _ZN16KFileItemActionsC2EP7QObject@Base 6.0.0
 _ZN16KFileItemActionsD0Ev@Base 6.0.0
 _ZN16KFileItemActionsD1Ev@Base 6.0.0
 _ZN16KFileItemActionsD2Ev@Base 6.0.0
 _ZN16KShellCompletion11qt_metacallEN11QMetaObject4CallEiPPv@Base 6.0.0
 _ZN16KShellCompletion11qt_metacastEPKc@Base 6.0.0
 _ZN16KShellCompletion14makeCompletionERK7QString@Base 6.0.0
 _ZN16KShellCompletion16staticMetaObjectE@Base 6.0.0
 _ZN16KShellCompletionC1Ev@Base 6.0.0
 _ZN16KShellCompletionC2Ev@Base 6.0.0
 _ZN16KShellCompletionD0Ev@Base 6.0.0
 _ZN16KShellCompletionD1Ev@Base 6.0.0
 _ZN16KShellCompletionD2Ev@Base 6.0.0
 _ZN17KFileItemDelegate11editorEventEP6QEventP18QAbstractItemModelRK20QStyleOptionViewItemRK11QModelIndex@Base 6.0.0
 _ZN17KFileItemDelegate11eventFilterEP7QObjectP6QEvent@Base 6.0.0
 _ZN17KFileItemDelegate11qt_metacallEN11QMetaObject4CallEiPPv@Base 6.0.0
 _ZN17KFileItemDelegate11qt_metacastEPKc@Base 6.0.0
 _ZN17KFileItemDelegate11setWrapModeEN11QTextOption8WrapModeE@Base 6.0.0
 _ZN17KFileItemDelegate13setShadowBlurEd@Base 6.0.0
 _ZN17KFileItemDelegate14setMaximumSizeERK5QSize@Base 6.0.0
 _ZN17KFileItemDelegate14setShadowColorERK6QColor@Base 6.0.0
 _ZN17KFileItemDelegate15setShadowOffsetERK7QPointF@Base 6.0.0
 _ZN17KFileItemDelegate16staticMetaObjectE@Base 6.0.0
 _ZN17KFileItemDelegate18setShowInformationENS_11InformationE@Base 6.0.0
 _ZN17KFileItemDelegate18setShowInformationERK5QListINS_11InformationEE@Base 6.0.0
 _ZN17KFileItemDelegate22setJobTransfersVisibleEb@Base 6.0.0
 _ZN17KFileItemDelegate24setShowToolTipWhenElidedEb@Base 6.0.0
 _ZN17KFileItemDelegate5shapeERK20QStyleOptionViewItemRK11QModelIndex@Base 6.0.0
 _ZN17KFileItemDelegate9helpEventEP10QHelpEventP17QAbstractItemViewRK20QStyleOptionViewItemRK11QModelIndex@Base 6.0.0
 _ZN17KFileItemDelegateC1EP7QObject@Base 6.0.0
 _ZN17KFileItemDelegateC2EP7QObject@Base 6.0.0
 _ZN17KFileItemDelegateD0Ev@Base 6.0.0
 _ZN17KFileItemDelegateD1Ev@Base 6.0.0
 _ZN17KFileItemDelegateD2Ev@Base 6.0.0
 _ZN17KPropertiesDialog10canDisplayERK13KFileItemList@Base 6.0.0
 _ZN17KPropertiesDialog10showDialogERK13KFileItemListP7QWidgetb@Base 6.0.0
 _ZN17KPropertiesDialog10showDialogERK4QUrlP7QWidgetb@Base 6.0.0
 _ZN17KPropertiesDialog10showDialogERK5QListI4QUrlEP7QWidgetb@Base 6.0.0
 _ZN17KPropertiesDialog10showDialogERK9KFileItemP7QWidgetb@Base 6.0.0
 _ZN17KPropertiesDialog11qt_metacallEN11QMetaObject4CallEiPPv@Base 6.0.0
 _ZN17KPropertiesDialog11qt_metacastEPKc@Base 6.0.0
 _ZN17KPropertiesDialog13abortApplyingEv@Base 6.0.0
 _ZN17KPropertiesDialog16propertiesClosedEv@Base 6.0.0
 _ZN17KPropertiesDialog16staticMetaObjectE@Base 6.0.0
 _ZN17KPropertiesDialog18setFileSharingPageEP7QWidget@Base 6.0.0
 _ZN17KPropertiesDialog19setFileNameReadOnlyEb@Base 6.0.0
 _ZN17KPropertiesDialog19showFileSharingPageEv@Base 6.0.0
 _ZN17KPropertiesDialog4itemEv@Base 6.0.0
 _ZN17KPropertiesDialog6acceptEv@Base 6.0.0
 _ZN17KPropertiesDialog6rejectEv@Base 6.0.0
 _ZN17KPropertiesDialog6renameERK7QString@Base 6.0.0
 _ZN17KPropertiesDialog6saveAsERK4QUrlRS0_@Base 6.0.0
 _ZN17KPropertiesDialog7appliedEv@Base 6.0.0
 _ZN17KPropertiesDialog8canceledEv@Base 6.0.0
 _ZN17KPropertiesDialog9updateUrlERK4QUrl@Base 6.0.0
 _ZN17KPropertiesDialogC1ERK13KFileItemListP7QWidget@Base 6.0.0
 _ZN17KPropertiesDialogC1ERK4QUrlP7QWidget@Base 6.0.0
 _ZN17KPropertiesDialogC1ERK4QUrlS2_RK7QStringP7QWidget@Base 6.0.0
 _ZN17KPropertiesDialogC1ERK5QListI4QUrlEP7QWidget@Base 6.0.0
 _ZN17KPropertiesDialogC1ERK7QStringP7QWidget@Base 6.0.0
 _ZN17KPropertiesDialogC1ERK9KFileItemP7QWidget@Base 6.0.0
 _ZN17KPropertiesDialogC2ERK13KFileItemListP7QWidget@Base 6.0.0
 _ZN17KPropertiesDialogC2ERK4QUrlP7QWidget@Base 6.0.0
 _ZN17KPropertiesDialogC2ERK4QUrlS2_RK7QStringP7QWidget@Base 6.0.0
 _ZN17KPropertiesDialogC2ERK5QListI4QUrlEP7QWidget@Base 6.0.0
 _ZN17KPropertiesDialogC2ERK7QStringP7QWidget@Base 6.0.0
 _ZN17KPropertiesDialogC2ERK9KFileItemP7QWidget@Base 6.0.0
 _ZN17KPropertiesDialogD0Ev@Base 6.0.0
 _ZN17KPropertiesDialogD1Ev@Base 6.0.0
 _ZN17KPropertiesDialogD2Ev@Base 6.0.0
 _ZN18KSslCertificateBox11qt_metacallEN11QMetaObject4CallEiPPv@Base 6.0.0
 _ZN18KSslCertificateBox11qt_metacastEPKc@Base 6.0.0
 _ZN18KSslCertificateBox14setCertificateERK15QSslCertificateNS_16CertificatePartyE@Base 6.0.0
 _ZN18KSslCertificateBox16staticMetaObjectE@Base 6.0.0
 _ZN18KSslCertificateBox5clearEv@Base 6.0.0
 _ZN18KSslCertificateBoxC1EP7QWidget@Base 6.0.0
 _ZN18KSslCertificateBoxC2EP7QWidget@Base 6.0.0
 _ZN18KSslCertificateBoxD0Ev@Base 6.0.0
 _ZN18KSslCertificateBoxD1Ev@Base 6.0.0
 _ZN18KSslCertificateBoxD2Ev@Base 6.0.0
 _ZN18KUrlComboRequester11qt_metacallEN11QMetaObject4CallEiPPv@Base 6.0.0
 _ZN18KUrlComboRequester11qt_metacastEPKc@Base 6.0.0
 _ZN18KUrlComboRequester16staticMetaObjectE@Base 6.0.0
 _ZN18KUrlComboRequesterC1EP7QWidget@Base 6.0.0
 _ZN18KUrlComboRequesterC2EP7QWidget@Base 6.0.0
 _ZN19KUrlRequesterDialog11qt_metacallEN11QMetaObject4CallEiPPv@Base 6.0.0
 _ZN19KUrlRequesterDialog11qt_metacastEPKc@Base 6.0.0
 _ZN19KUrlRequesterDialog12urlRequesterEv@Base 6.0.0
 _ZN19KUrlRequesterDialog16staticMetaObjectE@Base 6.0.0
 _ZN19KUrlRequesterDialog6getUrlERK4QUrlP7QWidgetRK7QString@Base 6.0.0
 _ZN19KUrlRequesterDialogC1ERK4QUrlP7QWidget@Base 6.0.0
 _ZN19KUrlRequesterDialogC1ERK4QUrlRK7QStringP7QWidget@Base 6.0.0
 _ZN19KUrlRequesterDialogC2ERK4QUrlP7QWidget@Base 6.0.0
 _ZN19KUrlRequesterDialogC2ERK4QUrlRK7QStringP7QWidget@Base 6.0.0
 _ZN19KUrlRequesterDialogD0Ev@Base 6.0.0
 _ZN19KUrlRequesterDialogD1Ev@Base 6.0.0
 _ZN19KUrlRequesterDialogD2Ev@Base 6.0.0
 _ZN23KPropertiesDialogPlugin11qt_metacallEN11QMetaObject4CallEiPPv@Base 6.0.0
 _ZN23KPropertiesDialogPlugin11qt_metacastEPKc@Base 6.0.0
 _ZN23KPropertiesDialogPlugin12applyChangesEv@Base 6.0.0
 _ZN23KPropertiesDialogPlugin16staticMetaObjectE@Base 6.0.0
 _ZN23KPropertiesDialogPlugin7changedEv@Base 6.0.0
 _ZN23KPropertiesDialogPlugin8setDirtyEb@Base 6.0.0
 _ZN23KPropertiesDialogPluginC1EP7QObject@Base 6.0.0
 _ZN23KPropertiesDialogPluginC2EP7QObject@Base 6.0.0
 _ZN23KPropertiesDialogPluginD0Ev@Base 6.0.0
 _ZN23KPropertiesDialogPluginD1Ev@Base 6.0.0
 _ZN23KPropertiesDialogPluginD2Ev@Base 6.0.0
 _ZN26KBuildSycocaProgressDialog11qt_metacallEN11QMetaObject4CallEiPPv@Base 6.0.0
 _ZN26KBuildSycocaProgressDialog11qt_metacastEPKc@Base 6.0.0
 _ZN26KBuildSycocaProgressDialog14rebuildKSycocaEP7QWidget@Base 6.0.0
 _ZN26KBuildSycocaProgressDialog16staticMetaObjectE@Base 6.0.0
 _ZN29KAbstractFileItemActionPlugin11qt_metacallEN11QMetaObject4CallEiPPv@Base 6.0.0
 _ZN29KAbstractFileItemActionPlugin11qt_metacastEPKc@Base 6.0.0
 _ZN29KAbstractFileItemActionPlugin16staticMetaObjectE@Base 6.0.0
 _ZN29KAbstractFileItemActionPlugin5errorERK7QString@Base 6.0.0
 _ZN29KAbstractFileItemActionPluginC1EP7QObject@Base 6.0.0
 _ZN29KAbstractFileItemActionPluginC2EP7QObject@Base 6.0.0
 _ZN29KAbstractFileItemActionPluginD0Ev@Base 6.0.0
 _ZN29KAbstractFileItemActionPluginD1Ev@Base 6.0.0
 _ZN29KAbstractFileItemActionPluginD2Ev@Base 6.0.0
 _ZN3KIO10SkipDialog11qt_metacallEN11QMetaObject4CallEiPPv@Base 6.0.0
 _ZN3KIO10SkipDialog11qt_metacastEPKc@Base 6.0.0
 _ZN3KIO10SkipDialog16staticMetaObjectE@Base 6.0.0
 _ZN3KIO10SkipDialogC1EP7QWidget6QFlagsINS_17SkipDialog_OptionEERK7QString@Base 6.0.0
 _ZN3KIO10SkipDialogC2EP7QWidget6QFlagsINS_17SkipDialog_OptionEERK7QString@Base 6.0.0
 _ZN3KIO10SkipDialogD0Ev@Base 6.0.0
 _ZN3KIO10SkipDialogD1Ev@Base 6.0.0
 _ZN3KIO10SkipDialogD2Ev@Base 6.0.0
 _ZN3KIO11ImageFilter10shadowBlurER6QImagefRK6QColor@Base 6.0.0
 _ZN3KIO12RenameDialog10newDestUrlEv@Base 6.0.0
 _ZN3KIO12RenameDialog11qt_metacallEN11QMetaObject4CallEiPPv@Base 6.0.0
 _ZN3KIO12RenameDialog11qt_metacastEPKc@Base 6.0.0
 _ZN3KIO12RenameDialog11skipPressedEv@Base 6.0.0
 _ZN3KIO12RenameDialog13cancelPressedEv@Base 6.0.0
 _ZN3KIO12RenameDialog13renamePressedEv@Base 6.0.0
 _ZN3KIO12RenameDialog13resumePressedEv@Base 6.0.0
 _ZN3KIO12RenameDialog16overwritePressedEv@Base 6.0.0
 _ZN3KIO12RenameDialog16resumeAllPressedEv@Base 6.0.0
 _ZN3KIO12RenameDialog16staticMetaObjectE@Base 6.0.0
 _ZN3KIO12RenameDialog18enableRenameButtonERK7QString@Base 6.0.0
 _ZN3KIO12RenameDialog19overwriteAllPressedEv@Base 6.0.0
 _ZN3KIO12RenameDialog21suggestNewNamePressedEv@Base 6.0.0
 _ZN3KIO12RenameDialog25overwriteWhenOlderPressedEv@Base 6.0.0
 _ZN3KIO12RenameDialogC1EP7QWidgetRK7QStringRK4QUrlS8_6QFlagsINS_19RenameDialog_OptionEEyyRK9QDateTimeSE_SE_SE_@Base 6.0.0
 _ZN3KIO12RenameDialogC2EP7QWidgetRK7QStringRK4QUrlS8_6QFlagsINS_19RenameDialog_OptionEEyyRK9QDateTimeSE_SE_SE_@Base 6.0.0
 _ZN3KIO12RenameDialogD0Ev@Base 6.0.0
 _ZN3KIO12RenameDialogD1Ev@Base 6.0.0
 _ZN3KIO12RenameDialogD2Ev@Base 6.0.0
 _ZN3KIO13JobUiDelegate11qt_metacallEN11QMetaObject4CallEiPPv@Base 6.0.0
 _ZN3KIO13JobUiDelegate11qt_metacastEPKc@Base 6.0.0
 _ZN3KIO13JobUiDelegate16staticMetaObjectE@Base 6.0.0
 _ZN3KIO13JobUiDelegate16unregisterWindowEP7QWidget@Base 6.0.0
 _ZN3KIO13JobUiDelegate20updateUrlInClipboardERK4QUrlS3_@Base 6.0.0
 _ZN3KIO13JobUiDelegate21askDeleteConfirmationERK5QListI4QUrlENS_22JobUiDelegateExtension12DeletionTypeENS6_16ConfirmationTypeE@Base 6.0.0
 _ZN3KIO13JobUiDelegate22createClipboardUpdaterEPNS_3JobENS_22JobUiDelegateExtension20ClipboardUpdaterModeE@Base 6.0.0
 _ZN3KIO13JobUiDelegate9setWindowEP7QWidget@Base 6.0.0
 _ZN3KIO13JobUiDelegateC1E6QFlagsIN14KJobUiDelegate4FlagEEP7QWidgetRK5QListIP7QObjectE@Base 6.0.0
 _ZN3KIO13JobUiDelegateC2E6QFlagsIN14KJobUiDelegate4FlagEEP7QWidgetRK5QListIP7QObjectE@Base 6.0.0
 _ZN3KIO13JobUiDelegateD0Ev@Base 6.0.0
 _ZN3KIO13JobUiDelegateD1Ev@Base 6.0.0
 _ZN3KIO13JobUiDelegateD2Ev@Base 6.0.0
 _ZN3KIO15FileUndoManager11UiInterface12virtual_hookEiPv@Base 6.0.0
 _ZN3KIO15FileUndoManager11UiInterface15setParentWidgetEP7QWidget@Base 6.0.0
 _ZN3KIO15FileUndoManager11UiInterface19setShowProgressInfoEb@Base 6.0.0
 _ZN3KIO15FileUndoManager11UiInterface21copiedFileWasModifiedERK4QUrlS4_RK9QDateTimeS7_@Base 6.0.0
 _ZN3KIO15FileUndoManager11UiInterface8jobErrorEPNS_3JobE@Base 6.0.0
 _ZN3KIO15FileUndoManager11UiInterfaceC1Ev@Base 6.0.0
 _ZN3KIO15FileUndoManager11UiInterfaceC2Ev@Base 6.0.0
 _ZN3KIO15FileUndoManager11UiInterfaceD0Ev@Base 6.0.0
 _ZN3KIO15FileUndoManager11UiInterfaceD1Ev@Base 6.0.0
 _ZN3KIO15FileUndoManager11UiInterfaceD2Ev@Base 6.0.0
 _ZN3KIO15FileUndoManager11qt_metacallEN11QMetaObject4CallEiPPv@Base 6.0.0
 _ZN3KIO15FileUndoManager11qt_metacastEPKc@Base 6.0.0
 _ZN3KIO15FileUndoManager13recordCopyJobEPNS_7CopyJobE@Base 6.0.0
 _ZN3KIO15FileUndoManager13undoAvailableEb@Base 6.0.0
 _ZN3KIO15FileUndoManager14setUiInterfaceEPNS0_11UiInterfaceE@Base 6.0.0
 _ZN3KIO15FileUndoManager15undoJobFinishedEv@Base 6.0.0
 _ZN3KIO15FileUndoManager15undoTextChangedERK7QString@Base 6.0.0
 _ZN3KIO15FileUndoManager16staticMetaObjectE@Base 6.0.0
 _ZN3KIO15FileUndoManager19jobRecordingStartedENS0_11CommandTypeE@Base 6.0.0
 _ZN3KIO15FileUndoManager20jobRecordingFinishedENS0_11CommandTypeE@Base 6.0.0
 _ZN3KIO15FileUndoManager22newCommandSerialNumberEv@Base 6.0.0
 _ZN3KIO15FileUndoManager4selfEv@Base 6.0.0
 _ZN3KIO15FileUndoManager4undoEv@Base 6.0.0
 _ZN3KIO15FileUndoManager9recordJobENS0_11CommandTypeERK5QListI4QUrlERKS3_PNS_3JobE@Base 6.0.0
 _ZN3KIO15pasteActionTextEPK9QMimeDataPbRK9KFileItem@Base 6.0.0
 _ZN3KIO16DeleteOrTrashJob10slotResultEP4KJob@Base 6.0.0
 _ZN3KIO16DeleteOrTrashJob11qt_metacallEN11QMetaObject4CallEiPPv@Base 6.0.0
 _ZN3KIO16DeleteOrTrashJob11qt_metacastEPKc@Base 6.0.0
 _ZN3KIO16DeleteOrTrashJob16staticMetaObjectE@Base 6.0.0
 _ZN3KIO16DeleteOrTrashJob5startEv@Base 6.0.0
 _ZN3KIO16DeleteOrTrashJobC1ERK5QListI4QUrlENS_22AskUserActionInterface12DeletionTypeENS6_16ConfirmationTypeEP7QObject@Base 6.0.0
 _ZN3KIO16DeleteOrTrashJobC2ERK5QListI4QUrlENS_22AskUserActionInterface12DeletionTypeENS6_16ConfirmationTypeEP7QObject@Base 6.0.0
 _ZN3KIO16DeleteOrTrashJobD0Ev@Base 6.0.0
 _ZN3KIO16DeleteOrTrashJobD1Ev@Base 6.0.0
 _ZN3KIO16DeleteOrTrashJobD2Ev@Base 6.0.0
 _ZN3KIO16RenameFileDialog11qt_metacallEN11QMetaObject4CallEiPPv@Base 6.0.0
 _ZN3KIO16RenameFileDialog11qt_metacastEPKc@Base 6.0.0
 _ZN3KIO16RenameFileDialog16renamingFinishedERK5QListI4QUrlE@Base 6.0.0
 _ZN3KIO16RenameFileDialog16staticMetaObjectE@Base 6.0.0
 _ZN3KIO16RenameFileDialog5errorEP4KJob@Base 6.0.0
 _ZN3KIO16RenameFileDialogC1ERK13KFileItemListP7QWidget@Base 6.0.0
 _ZN3KIO16RenameFileDialogC2ERK13KFileItemListP7QWidget@Base 6.0.0
 _ZN3KIO16RenameFileDialogD0Ev@Base 6.0.0
 _ZN3KIO16RenameFileDialogD1Ev@Base 6.0.0
 _ZN3KIO16RenameFileDialogD2Ev@Base 6.0.0
 _ZN3KIO16canPasteMimeDataEPK9QMimeData@Base 6.0.0
 _ZN3KIO18isClipboardDataCutEPK9QMimeData@Base 6.0.0
 _ZN3KIO19setClipboardDataCutEP9QMimeDatab@Base 6.0.0
 _ZN3KIO27WidgetsAskUserActionHandler11askUserSkipEP4KJob6QFlagsINS_17SkipDialog_OptionEERK7QString@Base 6.0.0
 _ZN3KIO27WidgetsAskUserActionHandler11qt_metacallEN11QMetaObject4CallEiPPv@Base 6.0.0
 _ZN3KIO27WidgetsAskUserActionHandler11qt_metacastEPKc@Base 6.0.0
 _ZN3KIO27WidgetsAskUserActionHandler13askUserDeleteERK5QListI4QUrlENS_22AskUserActionInterface12DeletionTypeENS6_16ConfirmationTypeEP7QWidget@Base 6.0.0
 _ZN3KIO27WidgetsAskUserActionHandler13askUserRenameEP4KJobRK7QStringRK4QUrlS8_6QFlagsINS_19RenameDialog_OptionEEyyRK9QDateTimeSE_SE_SE_@Base 6.0.0
 _ZN3KIO27WidgetsAskUserActionHandler14showSslDetailsERK4QMapI7QString8QVariantEP7QWidget@Base 6.0.0
 _ZN3KIO27WidgetsAskUserActionHandler16staticMetaObjectE@Base 6.0.0
 _ZN3KIO27WidgetsAskUserActionHandler18askIgnoreSslErrorsERK4QMapI7QString8QVariantEP7QWidget@Base 6.0.0
 _ZN3KIO27WidgetsAskUserActionHandler21requestUserMessageBoxENS_22AskUserActionInterface17MessageDialogTypeERK7QStringS5_S5_S5_S5_S5_S5_S5_P7QWidget@Base 6.0.0
 _ZN3KIO27WidgetsAskUserActionHandler9setWindowEP7QWidget@Base 6.0.0
 _ZN3KIO27WidgetsAskUserActionHandlerC1EP7QObject@Base 6.0.0
 _ZN3KIO27WidgetsAskUserActionHandlerC2EP7QObject@Base 6.0.0
 _ZN3KIO27WidgetsAskUserActionHandlerD0Ev@Base 6.0.0
 _ZN3KIO27WidgetsAskUserActionHandlerD1Ev@Base 6.0.0
 _ZN3KIO27WidgetsAskUserActionHandlerD2Ev@Base 6.0.0
 _ZN3KIO31KUriFilterSearchProviderActions11qt_metacallEN11QMetaObject4CallEiPPv@Base 6.0.0
 _ZN3KIO31KUriFilterSearchProviderActions11qt_metacastEPKc@Base 6.0.0
 _ZN3KIO31KUriFilterSearchProviderActions15setSelectedTextERK7QString@Base 6.0.0
 _ZN3KIO31KUriFilterSearchProviderActions16staticMetaObjectE@Base 6.0.0
 _ZN3KIO31KUriFilterSearchProviderActions21addWebShortcutsToMenuEP5QMenu@Base 6.0.0
 _ZN3KIO31KUriFilterSearchProviderActionsC1EP7QObject@Base 6.0.0
 _ZN3KIO31KUriFilterSearchProviderActionsC2EP7QObject@Base 6.0.0
 _ZN3KIO31KUriFilterSearchProviderActionsD0Ev@Base 6.0.0
 _ZN3KIO31KUriFilterSearchProviderActionsD1Ev@Base 6.0.0
 _ZN3KIO31KUriFilterSearchProviderActionsD2Ev@Base 6.0.0
 _ZN3KIO4dropEPK10QDropEventRK4QUrl6QFlagsINS_11DropJobFlagEES6_INS_7JobFlagEE@Base 6.0.0
 _ZN3KIO4dropEPK10QDropEventRK4QUrl6QFlagsINS_7JobFlagEE@Base 6.0.0
 _ZN3KIO5SslUi18askIgnoreSslErrorsERK15KSslErrorUiDataNS0_12RulesStorageE@Base 6.0.0
 _ZN3KIO5pasteEPK9QMimeDataRK4QUrl6QFlagsINS_7JobFlagEE@Base 6.0.0
 _ZN3KIO7DropJob10slotResultEP4KJob@Base 6.0.0
 _ZN3KIO7DropJob11itemCreatedERK4QUrl@Base 6.0.0
 _ZN3KIO7DropJob11qt_metacallEN11QMetaObject4CallEiPPv@Base 6.0.0
 _ZN3KIO7DropJob11qt_metacastEPKc@Base 6.0.0
 _ZN3KIO7DropJob14copyJobStartedEPNS_7CopyJobE@Base 6.0.0
 _ZN3KIO7DropJob16staticMetaObjectE@Base 6.0.0
 _ZN3KIO7DropJob20popupMenuAboutToShowERK23KFileItemListProperties@Base 6.0.0
 _ZN3KIO7DropJob21setApplicationActionsERK5QListIP7QActionE@Base 6.0.0
 _ZN3KIO7DropJob8showMenuERK6QPointP7QAction@Base 6.0.0
 _ZN3KIO7DropJobD0Ev@Base 6.0.0
 _ZN3KIO7DropJobD1Ev@Base 6.0.0
 _ZN3KIO7DropJobD2Ev@Base 6.0.0
 _ZN3KIO8PasteJob10slotResultEP4KJob@Base 6.0.0
 _ZN3KIO8PasteJob11itemCreatedERK4QUrl@Base 6.0.0
 _ZN3KIO8PasteJob11qt_metacallEN11QMetaObject4CallEiPPv@Base 6.0.0
 _ZN3KIO8PasteJob11qt_metacastEPKc@Base 6.0.0
 _ZN3KIO8PasteJob14copyJobStartedEPNS_7CopyJobE@Base 6.0.0
 _ZN3KIO8PasteJob16staticMetaObjectE@Base 6.0.0
 _ZN3KIO8PasteJobD0Ev@Base 6.0.0
 _ZN3KIO8PasteJobD1Ev@Base 6.0.0
 _ZN3KIO8PasteJobD2Ev@Base 6.0.0
 _ZN5KFile10isTreeViewERKNS_8FileViewE@Base 6.0.0
 _ZN5KFile12isDetailViewERKNS_8FileViewE@Base 6.0.0
 _ZN5KFile12isSimpleViewERKNS_8FileViewE@Base 6.0.0
 _ZN5KFile12isSortByDateERK6QFlagsIN4QDir8SortFlagEE@Base 6.0.0
 _ZN5KFile12isSortByNameERK6QFlagsIN4QDir8SortFlagEE@Base 6.0.0
 _ZN5KFile12isSortBySizeERK6QFlagsIN4QDir8SortFlagEE@Base 6.0.0
 _ZN5KFile12isSortByTypeERK6QFlagsIN4QDir8SortFlagEE@Base 6.0.0
 _ZN5KFile13isDefaultViewERKNS_8FileViewE@Base 6.0.0
 _ZN5KFile13isPreviewInfoERKNS_8FileViewE@Base 6.0.0
 _ZN5KFile14isSeparateDirsERKNS_8FileViewE@Base 6.0.0
 _ZN5KFile15isSortDirsFirstERK6QFlagsIN4QDir8SortFlagEE@Base 6.0.0
 _ZN5KFile16isDetailTreeViewERKNS_8FileViewE@Base 6.0.0
 _ZN5KFile16staticMetaObjectE@Base 6.0.0
 _ZN5KFile17isPreviewContentsERKNS_8FileViewE@Base 6.0.0
 _ZN5KFile21isSortCaseInsensitiveERK6QFlagsIN4QDir8SortFlagEE@Base 6.0.0
 _ZN9KDirModel10insertRowsEiiRK11QModelIndex@Base 6.0.0
 _ZN9KDirModel10removeRowsEiiRK11QModelIndex@Base 6.0.0
 _ZN9KDirModel11expandToUrlERK4QUrl@Base 6.0.0
 _ZN9KDirModel11itemChangedERK11QModelIndex@Base 6.0.0
 _ZN9KDirModel11qt_metacallEN11QMetaObject4CallEiPPv@Base 6.0.0
 _ZN9KDirModel11qt_metacastEPKc@Base 6.0.0
 _ZN9KDirModel12dropMimeDataEPK9QMimeDataN2Qt10DropActionEiiRK11QModelIndex@Base 6.0.0
 _ZN9KDirModel12setDirListerEP10KDirLister@Base 6.0.0
 _ZN9KDirModel13insertColumnsEiiRK11QModelIndex@Base 6.0.0
 _ZN9KDirModel13removeColumnsEiiRK11QModelIndex@Base 6.0.0
 _ZN9KDirModel15setDropsAllowedE6QFlagsINS_16DropsAllowedFlagEE@Base 6.0.0
 _ZN9KDirModel16clearAllPreviewsEv@Base 6.0.0
 _ZN9KDirModel16needSequenceIconERK11QModelIndexi@Base 6.0.0
 _ZN9KDirModel16staticMetaObjectE@Base 6.0.0
 _ZN9KDirModel17simplifiedUrlListERK5QListI4QUrlE@Base 6.0.0
 _ZN9KDirModel19requestSequenceIconERK11QModelIndexi@Base 6.0.0
 _ZN9KDirModel22setJobTransfersVisibleEb@Base 6.0.0
 _ZN9KDirModel4sortEiN2Qt9SortOrderE@Base 6.0.0
 _ZN9KDirModel6expandERK11QModelIndex@Base 6.0.0
 _ZN9KDirModel7openUrlERK4QUrl6QFlagsINS_11OpenUrlFlagEE@Base 6.0.0
 _ZN9KDirModel7setDataERK11QModelIndexRK8QVarianti@Base 6.0.0
 _ZN9KDirModel9fetchMoreERK11QModelIndex@Base 6.0.0
 _ZN9KDirModelC1EP7QObject@Base 6.0.0
 _ZN9KDirModelC2EP7QObject@Base 6.0.0
 _ZN9KDirModelD0Ev@Base 6.0.0
 _ZN9KDirModelD1Ev@Base 6.0.0
 _ZN9KDirModelD2Ev@Base 6.0.0
 _ZNK10KDirLister10metaObjectEv@Base 6.0.0
 _ZNK10KDirLister24autoErrorHandlingEnabledEv@Base 6.0.0
 _ZNK12KUrlComboBox10metaObjectEv@Base 6.0.0
 _ZNK12KUrlComboBox4urlsEv@Base 6.0.0
 _ZNK12KUrlComboBox8maxItemsEv@Base 6.0.0
 _ZNK13KUrlRequester10acceptModeEv@Base 6.0.0
 _ZNK13KUrlRequester10fileDialogEv@Base 6.0.0
 _ZNK13KUrlRequester10metaObjectEv@Base 6.0.0
 _ZNK13KUrlRequester11nameFiltersEv@Base 6.0.0
 _ZNK13KUrlRequester15mimeTypeFiltersEv@Base 6.0.0
 _ZNK13KUrlRequester15placeholderTextEv@Base 6.0.0
 _ZNK13KUrlRequester16completionObjectEv@Base 6.0.0
 _ZNK13KUrlRequester18fileDialogModalityEv@Base 6.0.0
 _ZNK13KUrlRequester3urlEv@Base 6.0.0
 _ZNK13KUrlRequester4modeEv@Base 6.0.0
 _ZNK13KUrlRequester4textEv@Base 6.0.0
 _ZNK13KUrlRequester6buttonEv@Base 6.0.0
 _ZNK13KUrlRequester8comboBoxEv@Base 6.0.0
 _ZNK13KUrlRequester8lineEditEv@Base 6.0.0
 _ZNK13KUrlRequester8startDirEv@Base 6.0.0
 _ZNK14KSslInfoDialog10metaObjectEv@Base 6.0.0
 _ZNK14KUrlCompletion10metaObjectEv@Base 6.0.0
 _ZNK14KUrlCompletion10replaceEnvEv@Base 6.0.0
 _ZNK14KUrlCompletion11replaceHomeEv@Base 6.0.0
 _ZNK14KUrlCompletion12replacedPathERK7QString@Base 6.0.0
 _ZNK14KUrlCompletion15mimeTypeFiltersEv@Base 6.0.0
 _ZNK14KUrlCompletion16postProcessMatchEP7QString@Base 6.0.0
 _ZNK14KUrlCompletion18postProcessMatchesEP18KCompletionMatches@Base 6.0.0
 _ZNK14KUrlCompletion18postProcessMatchesEP5QListI7QStringE@Base 6.0.0
 _ZNK14KUrlCompletion3dirEv@Base 6.0.0
 _ZNK14KUrlCompletion4modeEv@Base 6.0.0
 _ZNK14KUrlCompletion9isRunningEv@Base 6.0.0
 _ZNK15KOpenWithDialog10metaObjectEv@Base 6.0.0
 _ZNK15KOpenWithDialog4textEv@Base 6.0.0
 _ZNK15KOpenWithDialog7serviceEv@Base 6.0.0
 _ZNK16KFileItemActions10metaObjectEv@Base 6.0.0
 _ZNK16KShellCompletion10metaObjectEv@Base 6.0.0
 _ZNK16KShellCompletion16postProcessMatchEP7QString@Base 6.0.0
 _ZNK16KShellCompletion18postProcessMatchesEP18KCompletionMatches@Base 6.0.0
 _ZNK16KShellCompletion18postProcessMatchesEP5QListI7QStringE@Base 6.0.0
 _ZNK17KFileItemDelegate10metaObjectEv@Base 6.0.0
 _ZNK17KFileItemDelegate10shadowBlurEv@Base 6.0.0
 _ZNK17KFileItemDelegate11maximumSizeEv@Base 6.0.0
 _ZNK17KFileItemDelegate11shadowColorEv@Base 6.0.0
 _ZNK17KFileItemDelegate12createEditorEP7QWidgetRK20QStyleOptionViewItemRK11QModelIndex@Base 6.0.0
 _ZNK17KFileItemDelegate12setModelDataEP7QWidgetP18QAbstractItemModelRK11QModelIndex@Base 6.0.0
 _ZNK17KFileItemDelegate12shadowOffsetEv@Base 6.0.0
 _ZNK17KFileItemDelegate13setEditorDataEP7QWidgetRK11QModelIndex@Base 6.0.0
 _ZNK17KFileItemDelegate15showInformationEv@Base 6.0.0
 _ZNK17KFileItemDelegate19jobTransfersVisibleEv@Base 6.0.0
 _ZNK17KFileItemDelegate20updateEditorGeometryEP7QWidgetRK20QStyleOptionViewItemRK11QModelIndex@Base 6.0.0
 _ZNK17KFileItemDelegate21showToolTipWhenElidedEv@Base 6.0.0
 _ZNK17KFileItemDelegate5paintEP8QPainterRK20QStyleOptionViewItemRK11QModelIndex@Base 6.0.0
 _ZNK17KFileItemDelegate8iconRectERK20QStyleOptionViewItemRK11QModelIndex@Base 6.0.0
 _ZNK17KFileItemDelegate8sizeHintERK20QStyleOptionViewItemRK11QModelIndex@Base 6.0.0
 _ZNK17KFileItemDelegate8wrapModeEv@Base 6.0.0
 _ZNK17KPropertiesDialog10currentDirEv@Base 6.0.0
 _ZNK17KPropertiesDialog10metaObjectEv@Base 6.0.0
 _ZNK17KPropertiesDialog11defaultNameEv@Base 6.0.0
 _ZNK17KPropertiesDialog3urlEv@Base 6.0.0
 _ZNK17KPropertiesDialog5itemsEv@Base 6.0.0
 _ZNK18KSslCertificateBox10metaObjectEv@Base 6.0.0
 _ZNK18KUrlComboRequester10metaObjectEv@Base 6.0.0
 _ZNK19KUrlRequesterDialog10metaObjectEv@Base 6.0.0
 _ZNK19KUrlRequesterDialog11selectedUrlEv@Base 6.0.0
 _ZNK23KPropertiesDialogPlugin10fontHeightEv@Base 6.0.0
 _ZNK23KPropertiesDialogPlugin10metaObjectEv@Base 6.0.0
 _ZNK23KPropertiesDialogPlugin7isDirtyEv@Base 6.0.0
 _ZNK26KBuildSycocaProgressDialog10metaObjectEv@Base 6.0.0
 _ZNK29KAbstractFileItemActionPlugin10metaObjectEv@Base 6.0.0
 _ZNK3KIO10SkipDialog10metaObjectEv@Base 6.0.0
 _ZNK3KIO12RenameDialog10metaObjectEv@Base 6.0.0
 _ZNK3KIO12RenameDialog11autoDestUrlEv@Base 6.0.0
 _ZNK3KIO13JobUiDelegate10metaObjectEv@Base 6.0.0
 _ZNK3KIO15FileUndoManager10metaObjectEv@Base 6.0.0
 _ZNK3KIO15FileUndoManager11UiInterface12parentWidgetEv@Base 6.0.0
 _ZNK3KIO15FileUndoManager11UiInterface16showProgressInfoEv@Base 6.0.0
 _ZNK3KIO15FileUndoManager11uiInterfaceEv@Base 6.0.0
 _ZNK3KIO15FileUndoManager15isUndoAvailableEv@Base 6.0.0
 _ZNK3KIO15FileUndoManager26currentCommandSerialNumberEv@Base 6.0.0
 _ZNK3KIO15FileUndoManager8undoTextEv@Base 6.0.0
 _ZNK3KIO16DeleteOrTrashJob10metaObjectEv@Base 6.0.0
 _ZNK3KIO16RenameFileDialog10metaObjectEv@Base 6.0.0
 _ZNK3KIO27WidgetsAskUserActionHandler10metaObjectEv@Base 6.0.0
 _ZNK3KIO31KUriFilterSearchProviderActions10metaObjectEv@Base 6.0.0
 _ZNK3KIO31KUriFilterSearchProviderActions12selectedTextEv@Base 6.0.0
 _ZNK3KIO7DropJob10metaObjectEv@Base 6.0.0
 _ZNK3KIO8PasteJob10metaObjectEv@Base 6.0.0
 _ZNK9KDirModel10headerDataEiN2Qt11OrientationEi@Base 6.0.0
 _ZNK9KDirModel10metaObjectEv@Base 6.0.0
 _ZNK9KDirModel11columnCountERK11QModelIndex@Base 6.0.0
 _ZNK9KDirModel11hasChildrenERK11QModelIndex@Base 6.0.0
 _ZNK9KDirModel11indexForUrlERK4QUrl@Base 6.0.0
 _ZNK9KDirModel12canFetchMoreERK11QModelIndex@Base 6.0.0
 _ZNK9KDirModel12indexForItemERK9KFileItem@Base 6.0.0
 _ZNK9KDirModel12itemForIndexERK11QModelIndex@Base 6.0.0
 _ZNK9KDirModel19jobTransfersVisibleEv@Base 6.0.0
 _ZNK9KDirModel20supportedDropActionsEv@Base 6.0.0
 _ZNK9KDirModel4dataERK11QModelIndexi@Base 6.0.0
 _ZNK9KDirModel5flagsERK11QModelIndex@Base 6.0.0
 _ZNK9KDirModel5indexEiiRK11QModelIndex@Base 6.0.0
 _ZNK9KDirModel6parentERK11QModelIndex@Base 6.0.0
 _ZNK9KDirModel7siblingEiiRK11QModelIndex@Base 6.0.0
 _ZNK9KDirModel8mimeDataERK5QListI11QModelIndexE@Base 6.0.0
 _ZNK9KDirModel8rowCountERK11QModelIndex@Base 6.0.0
 _ZNK9KDirModel9dirListerEv@Base 6.0.0
 _ZNK9KDirModel9mimeTypesEv@Base 6.0.0
 _ZNK9KDirModel9roleNamesEv@Base 6.0.0
 _ZSt19piecewise_construct@Base 6.0.0
 _ZTI10KDirLister@Base 6.0.0
 _ZTI12KUrlComboBox@Base 6.0.0
 _ZTI13KUrlRequester@Base 6.0.0
 _ZTI14KSslInfoDialog@Base 6.0.0
 _ZTI14KUrlCompletion@Base 6.0.0
 _ZTI15KOpenWithDialog@Base 6.0.0
 _ZTI16KFileItemActions@Base 6.0.0
 _ZTI16KShellCompletion@Base 6.0.0
 _ZTI17KFileItemDelegate@Base 6.0.0
 _ZTI17KPropertiesDialog@Base 6.0.0
 _ZTI18KSslCertificateBox@Base 6.0.0
 _ZTI18KUrlComboRequester@Base 6.0.0
 _ZTI19KUrlRequesterDialog@Base 6.0.0
 _ZTI23KPropertiesDialogPlugin@Base 6.0.0
 _ZTI26KBuildSycocaProgressDialog@Base 6.0.0
 _ZTI29KAbstractFileItemActionPlugin@Base 6.0.0
 _ZTI9KDirModel@Base 6.0.0
 _ZTIN3KIO10SkipDialogE@Base 6.0.0
 _ZTIN3KIO12RenameDialogE@Base 6.0.0
 _ZTIN3KIO13JobUiDelegateE@Base 6.0.0
 _ZTIN3KIO15FileUndoManager11UiInterfaceE@Base 6.0.0
 _ZTIN3KIO15FileUndoManagerE@Base 6.0.0
 _ZTIN3KIO16DeleteOrTrashJobE@Base 6.0.0
 _ZTIN3KIO16RenameFileDialogE@Base 6.0.0
 _ZTIN3KIO27WidgetsAskUserActionHandlerE@Base 6.0.0
 _ZTIN3KIO31KUriFilterSearchProviderActionsE@Base 6.0.0
 _ZTIN3KIO7DropJobE@Base 6.0.0
 _ZTIN3KIO8PasteJobE@Base 6.0.0
 (arch=armel riscv64)_ZTIN9__gnu_cxx7__mutexE@Base 6.0.0
 (arch=armel riscv64)_ZTISt11_Mutex_baseILN9__gnu_cxx12_Lock_policyE1EE@Base 6.0.0
 (arch=!armel !riscv64)_ZTISt11_Mutex_baseILN9__gnu_cxx12_Lock_policyE2EE@Base 6.0.0
 (arch=armel riscv64)_ZTISt16_Sp_counted_baseILN9__gnu_cxx12_Lock_policyE1EE@Base 6.0.0
 (arch=!armel !riscv64)_ZTISt16_Sp_counted_baseILN9__gnu_cxx12_Lock_policyE2EE@Base 6.0.0
 (arch=armel armhf)_ZTISt19_Sp_make_shared_tag@Base 6.0.0
 _ZTIZN9QMetaType17registerConverterI5QListI4QUrlE9QIterableI13QMetaSequenceEN9QtPrivate33QSequentialIterableConvertFunctorIS3_EEEEbT1_EUlPKvPvE_@Base 6.0.0
 _ZTIZN9QMetaType17registerConverterI5QListIN17KFileItemDelegate11InformationEE9QIterableI13QMetaSequenceEN9QtPrivate33QSequentialIterableConvertFunctorIS4_EEEEbT1_EUlPKvPvE_@Base 6.0.0
 _ZTIZN9QMetaType19registerMutableViewI5QListI4QUrlE9QIterableI13QMetaSequenceEN9QtPrivate37QSequentialIterableMutableViewFunctorIS3_EEEEbT1_EUlPvSB_E_@Base 6.0.0
 _ZTIZN9QMetaType19registerMutableViewI5QListIN17KFileItemDelegate11InformationEE9QIterableI13QMetaSequenceEN9QtPrivate37QSequentialIterableMutableViewFunctorIS4_EEEEbT1_EUlPvSC_E_@Base 6.0.0
 _ZTS10KDirLister@Base 6.0.0
 _ZTS12KUrlComboBox@Base 6.0.0
 _ZTS13KUrlRequester@Base 6.0.0
 _ZTS14KSslInfoDialog@Base 6.0.0
 _ZTS14KUrlCompletion@Base 6.0.0
 _ZTS15KOpenWithDialog@Base 6.0.0
 _ZTS16KFileItemActions@Base 6.0.0
 _ZTS16KShellCompletion@Base 6.0.0
 _ZTS17KFileItemDelegate@Base 6.0.0
 _ZTS17KPropertiesDialog@Base 6.0.0
 _ZTS18KSslCertificateBox@Base 6.0.0
 _ZTS18KUrlComboRequester@Base 6.0.0
 _ZTS19KUrlRequesterDialog@Base 6.0.0
 _ZTS23KPropertiesDialogPlugin@Base 6.0.0
 _ZTS26KBuildSycocaProgressDialog@Base 6.0.0
 _ZTS29KAbstractFileItemActionPlugin@Base 6.0.0
 _ZTS9KDirModel@Base 6.0.0
 _ZTSN3KIO10SkipDialogE@Base 6.0.0
 _ZTSN3KIO12RenameDialogE@Base 6.0.0
 _ZTSN3KIO13JobUiDelegateE@Base 6.0.0
 _ZTSN3KIO15FileUndoManager11UiInterfaceE@Base 6.0.0
 _ZTSN3KIO15FileUndoManagerE@Base 6.0.0
 _ZTSN3KIO16DeleteOrTrashJobE@Base 6.0.0
 _ZTSN3KIO16RenameFileDialogE@Base 6.0.0
 _ZTSN3KIO27WidgetsAskUserActionHandlerE@Base 6.0.0
 _ZTSN3KIO31KUriFilterSearchProviderActionsE@Base 6.0.0
 _ZTSN3KIO7DropJobE@Base 6.0.0
 _ZTSN3KIO8PasteJobE@Base 6.0.0
 (arch=armel riscv64)_ZTSN9__gnu_cxx7__mutexE@Base 6.0.0
 (arch=armel riscv64)_ZTSSt11_Mutex_baseILN9__gnu_cxx12_Lock_policyE1EE@Base 6.0.0
 (arch=!armel !riscv64)_ZTSSt11_Mutex_baseILN9__gnu_cxx12_Lock_policyE2EE@Base 6.0.0
 (arch=armel riscv64)_ZTSSt16_Sp_counted_baseILN9__gnu_cxx12_Lock_policyE1EE@Base 6.0.0
 (arch=!armel !riscv64)_ZTSSt16_Sp_counted_baseILN9__gnu_cxx12_Lock_policyE2EE@Base 6.0.0
 _ZTSSt19_Sp_make_shared_tag@Base 6.0.0
 (arch=armel riscv64)_ZTSSt23_Sp_counted_ptr_inplaceI23QDBusPendingCallWatcherSaIvELN9__gnu_cxx12_Lock_policyE1EE@Base 6.0.0
 (arch=!armel !riscv64)_ZTSSt23_Sp_counted_ptr_inplaceI23QDBusPendingCallWatcherSaIvELN9__gnu_cxx12_Lock_policyE2EE@Base 6.0.0
 _ZTSZN9QMetaType17registerConverterI5QListI4QUrlE9QIterableI13QMetaSequenceEN9QtPrivate33QSequentialIterableConvertFunctorIS3_EEEEbT1_EUlPKvPvE_@Base 6.0.0
 _ZTSZN9QMetaType17registerConverterI5QListIN17KFileItemDelegate11InformationEE9QIterableI13QMetaSequenceEN9QtPrivate33QSequentialIterableConvertFunctorIS4_EEEEbT1_EUlPKvPvE_@Base 6.0.0
 _ZTSZN9QMetaType19registerMutableViewI5QListI4QUrlE9QIterableI13QMetaSequenceEN9QtPrivate37QSequentialIterableMutableViewFunctorIS3_EEEEbT1_EUlPvSB_E_@Base 6.0.0
 _ZTSZN9QMetaType19registerMutableViewI5QListIN17KFileItemDelegate11InformationEE9QIterableI13QMetaSequenceEN9QtPrivate37QSequentialIterableMutableViewFunctorIS4_EEEEbT1_EUlPvSC_E_@Base 6.0.0
 _ZTV10KDirLister@Base 6.0.0
 _ZTV12KUrlComboBox@Base 6.0.0
 _ZTV13KUrlRequester@Base 6.0.0
 _ZTV14KSslInfoDialog@Base 6.0.0
 _ZTV14KUrlCompletion@Base 6.0.0
 _ZTV15KOpenWithDialog@Base 6.0.0
 _ZTV16KFileItemActions@Base 6.0.0
 _ZTV16KShellCompletion@Base 6.0.0
 _ZTV17KFileItemDelegate@Base 6.0.0
 _ZTV17KPropertiesDialog@Base 6.0.0
 _ZTV18KSslCertificateBox@Base 6.0.0
 _ZTV18KUrlComboRequester@Base 6.0.0
 _ZTV19KUrlRequesterDialog@Base 6.0.0
 _ZTV23KPropertiesDialogPlugin@Base 6.0.0
 _ZTV26KBuildSycocaProgressDialog@Base 6.0.0
 _ZTV29KAbstractFileItemActionPlugin@Base 6.0.0
 _ZTV9KDirModel@Base 6.0.0
 _ZTVN3KIO10SkipDialogE@Base 6.0.0
 _ZTVN3KIO12RenameDialogE@Base 6.0.0
 _ZTVN3KIO13JobUiDelegateE@Base 6.0.0
 _ZTVN3KIO15FileUndoManager11UiInterfaceE@Base 6.0.0
 _ZTVN3KIO15FileUndoManagerE@Base 6.0.0
 _ZTVN3KIO16DeleteOrTrashJobE@Base 6.0.0
 _ZTVN3KIO16RenameFileDialogE@Base 6.0.0
 _ZTVN3KIO27WidgetsAskUserActionHandlerE@Base 6.0.0
 _ZTVN3KIO31KUriFilterSearchProviderActionsE@Base 6.0.0
 _ZTVN3KIO7DropJobE@Base 6.0.0
 _ZTVN3KIO8PasteJobE@Base 6.0.0
 (optional=templinst)_ZZN9QMetaType21registerConverterImplI5QListI4QUrlE9QIterableI13QMetaSequenceEEEbSt8functionIFbPKvPvEES_S_E10unregister@Base 6.0.0
 (optional=templinst)_ZZN9QMetaType21registerConverterImplI5QListIN17KFileItemDelegate11InformationEE9QIterableI13QMetaSequenceEEEbSt8functionIFbPKvPvEES_S_E10unregister@Base 6.0.0
 (optional=templinst)_ZZN9QMetaType23registerMutableViewImplI5QListI4QUrlE9QIterableI13QMetaSequenceEEEbSt8functionIFbPvS8_EES_S_E10unregister@Base 6.0.0
 (optional=templinst)_ZZN9QMetaType23registerMutableViewImplI5QListIN17KFileItemDelegate11InformationEE9QIterableI13QMetaSequenceEEEbSt8functionIFbPvS9_EES_S_E10unregister@Base 6.0.0
 _ZZNSt19_Sp_make_shared_tag5_S_tiEvE5__tag@Base 6.0.0
 (c++)"non-virtual thunk to KIO::JobUiDelegate::askDeleteConfirmation(QList<QUrl> const&, KIO::JobUiDelegateExtension::DeletionType, KIO::JobUiDelegateExtension::ConfirmationType)@Base" 6.0.0
 (c++)"non-virtual thunk to KIO::JobUiDelegate::createClipboardUpdater(KIO::Job*, KIO::JobUiDelegateExtension::ClipboardUpdaterMode)@Base" 6.0.0
 (c++)"non-virtual thunk to KIO::JobUiDelegate::updateUrlInClipboard(QUrl const&, QUrl const&)@Base" 6.0.0
 (c++)"non-virtual thunk to KIO::JobUiDelegate::~JobUiDelegate()@Base" 6.0.0
 (c++)"non-virtual thunk to KIO::RenameDialog::~RenameDialog()@Base" 6.0.0
 (c++)"non-virtual thunk to KIO::RenameFileDialog::~RenameFileDialog()@Base" 6.0.0
 (c++)"non-virtual thunk to KIO::SkipDialog::~SkipDialog()@Base" 6.0.0
 (c++)"non-virtual thunk to KOpenWithDialog::~KOpenWithDialog()@Base" 6.0.0
 (c++)"non-virtual thunk to KPropertiesDialog::~KPropertiesDialog()@Base" 6.0.0
 (c++)"non-virtual thunk to KSslCertificateBox::~KSslCertificateBox()@Base" 6.0.0
 (c++)"non-virtual thunk to KSslInfoDialog::~KSslInfoDialog()@Base" 6.0.0
 (c++)"non-virtual thunk to KUrlComboBox::setCompletionObject(KCompletion*, bool)@Base" 6.0.0
 (c++)"non-virtual thunk to KUrlComboBox::~KUrlComboBox()@Base" 6.0.0
 (c++)"non-virtual thunk to KUrlRequester::~KUrlRequester()@Base" 6.0.0
 (c++)"non-virtual thunk to KUrlRequesterDialog::~KUrlRequesterDialog()@Base" 6.0.0
