# SymbolsHelper-Confirmed: 6.8.0 amd64
libKF6KIOCore.so.6 libkf6kiocore6 #MINVER#, kio6
* Build-Depends-Package: libkf6kio-dev
 _Z22_allKsslCaCertificatesP22KSslCertificateManager@Base 6.0.0
 _Z25_setAllKsslCaCertificatesP22KSslCertificateManagerRK5QListI17KSslCaCertificateE@Base 6.0.0
 _ZGVZN9QMetaType21registerConverterImplI5QListI15QSslCertificateE9QIterableI13QMetaSequenceEEEbSt8functionIFbPKvPvEES_S_E10unregister@Base 6.0.0
 _ZGVZN9QMetaType21registerConverterImplI5QListI4QUrlE9QIterableI13QMetaSequenceEEEbSt8functionIFbPKvPvEES_S_E10unregister@Base 6.0.0
 _ZGVZN9QMetaType21registerConverterImplI5QListIN3KIO8UDSEntryEE9QIterableI13QMetaSequenceEEEbSt8functionIFbPKvPvEES_S_E10unregister@Base 6.0.0
 _ZGVZN9QMetaType21registerConverterImplI5QListIN9QSslError8SslErrorEE9QIterableI13QMetaSequenceEEEbSt8functionIFbPKvPvEES_S_E10unregister@Base 6.0.0
 _ZGVZN9QMetaType21registerConverterImplI5QListISt4pairI9KFileItemS3_EE9QIterableI13QMetaSequenceEEEbSt8functionIFbPKvPvEES_S_E10unregister@Base 6.0.0
 _ZGVZN9QMetaType21registerConverterImplISt4pairI9KFileItemS2_EN17QtMetaTypePrivate25QPairVariantInterfaceImplEEEbSt8functionIFbPKvPvEES_S_E10unregister@Base 6.0.0
 _ZGVZN9QMetaType23registerMutableViewImplI5QListI15QSslCertificateE9QIterableI13QMetaSequenceEEEbSt8functionIFbPvS8_EES_S_E10unregister@Base 6.0.0
 _ZGVZN9QMetaType23registerMutableViewImplI5QListI4QUrlE9QIterableI13QMetaSequenceEEEbSt8functionIFbPvS8_EES_S_E10unregister@Base 6.0.0
 _ZGVZN9QMetaType23registerMutableViewImplI5QListIN3KIO8UDSEntryEE9QIterableI13QMetaSequenceEEEbSt8functionIFbPvS9_EES_S_E10unregister@Base 6.0.0
 _ZGVZN9QMetaType23registerMutableViewImplI5QListIN9QSslError8SslErrorEE9QIterableI13QMetaSequenceEEEbSt8functionIFbPvS9_EES_S_E10unregister@Base 6.0.0
 _ZGVZN9QMetaType23registerMutableViewImplI5QListISt4pairI9KFileItemS3_EE9QIterableI13QMetaSequenceEEEbSt8functionIFbPvSA_EES_S_E10unregister@Base 6.0.0
 _ZN10KIOPrivate13createSymlinkERK7QStringS2_NS_11SymlinkTypeE@Base 6.0.0
 _ZN10KIOPrivate14isProcessAliveEx@Base 6.0.0
 _ZN10KIOPrivate15changeOwnershipERK7QString7KUserId8KGroupId@Base 6.0.0
 _ZN10KIOPrivate19sendTerminateSignalEx@Base 6.0.0
 _ZN11KFileFilter12fromMimeTypeERK7QString@Base 6.0.0
 _ZN11KFileFilter13fromMimeTypesERK5QListI7QStringE@Base 6.0.0
 _ZN11KFileFilter16fromFilterStringERK7QString@Base 6.0.0
 _ZN11KFileFilterC1ERK7QStringRK5QListIS0_ES6_@Base 6.0.0
 _ZN11KFileFilterC1ERKS_@Base 6.0.0
 _ZN11KFileFilterC1Ev@Base 6.0.0
 _ZN11KFileFilterC2ERK7QStringRK5QListIS0_ES6_@Base 6.0.0
 _ZN11KFileFilterC2ERKS_@Base 6.0.0
 _ZN11KFileFilterC2Ev@Base 6.0.0
 _ZN11KFileFilterD1Ev@Base 6.0.0
 _ZN11KFileFilterD2Ev@Base 6.0.0
 _ZN11KFileFilteraSERKS_@Base 6.0.0
 _ZN11KMountPoint18currentMountPointsE6QFlagsINS_17DetailsNeededFlagEE@Base 6.0.0
 _ZN11KMountPoint19possibleMountPointsE6QFlagsINS_17DetailsNeededFlagEE@Base 6.0.0
 _ZN11KMountPoint4ListC1Ev@Base 6.0.0
 _ZN11KMountPoint4ListC2Ev@Base 6.0.0
 _ZN11KMountPointD1Ev@Base 6.0.0
 _ZN11KMountPointD2Ev@Base 6.0.0
 _ZN11KRecentDirs3addERK7QStringS2_@Base 6.0.0
 _ZN11KRecentDirs3dirERK7QString@Base 6.0.0
 _ZN11KRecentDirs4listERK7QString@Base 6.0.0
 _ZN11KSambaShare11qt_metacallEN11QMetaObject4CallEiPPv@Base 6.0.0
 _ZN11KSambaShare11qt_metacastEPKc@Base 6.0.0
 _ZN11KSambaShare16staticMetaObjectE@Base 6.0.0
 _ZN11KSambaShare7changedEv@Base 6.0.0
 _ZN11KSambaShare8instanceEv@Base 6.0.0
 _ZN11KSambaShareD0Ev@Base 6.0.0
 _ZN11KSambaShareD1Ev@Base 6.0.0
 _ZN11KSambaShareD2Ev@Base 6.0.0
 _ZN13KFileItemListC1ERK5QListI9KFileItemE@Base 6.0.0
 _ZN13KFileItemListC1ESt16initializer_listI9KFileItemE@Base 6.0.0
 _ZN13KFileItemListC1Ev@Base 6.0.0
 _ZN13KFileItemListC2ERK5QListI9KFileItemE@Base 6.0.0
 _ZN13KFileItemListC2ESt16initializer_listI9KFileItemE@Base 6.0.0
 _ZN13KFileItemListC2Ev@Base 6.0.0
 _ZN13KProtocolInfo10maxWorkersERK7QString@Base 6.0.0
 _ZN13KProtocolInfo11extraFieldsERK4QUrl@Base 6.0.0
 _ZN13KProtocolInfo12capabilitiesERK7QString@Base 6.0.0
 _ZN13KProtocolInfo13protocolClassERK7QString@Base 6.0.0
 _ZN13KProtocolInfo15defaultMimetypeERK7QString@Base 6.0.0
 _ZN13KProtocolInfo15isKnownProtocolERK4QUrl@Base 6.0.0
 _ZN13KProtocolInfo15isKnownProtocolERK7QStringb@Base 6.0.0
 _ZN13KProtocolInfo15showFilePreviewERK7QString@Base 6.0.0
 _ZN13KProtocolInfo16archiveMimetypesERK7QString@Base 6.0.0
 _ZN13KProtocolInfo16isFilterProtocolERK4QUrl@Base 6.0.0
 _ZN13KProtocolInfo16isFilterProtocolERK7QString@Base 6.0.0
 _ZN13KProtocolInfo16isHelperProtocolERK4QUrl@Base 6.0.0
 _ZN13KProtocolInfo16isHelperProtocolERK7QString@Base 6.0.0
 _ZN13KProtocolInfo17maxWorkersPerHostERK7QString@Base 6.0.0
 _ZN13KProtocolInfo30determineMimetypeFromExtensionERK7QString@Base 6.0.0
 _ZN13KProtocolInfo4execERK7QString@Base 6.0.0
 _ZN13KProtocolInfo4iconERK7QString@Base 6.0.0
 _ZN13KProtocolInfo6configERK7QString@Base 6.0.0
 _ZN13KProtocolInfo7docPathERK7QString@Base 6.0.0
 _ZN13KProtocolInfo9protocolsEv@Base 6.0.0
 _ZN13KProtocolInfo9proxiedByERK7QString@Base 6.0.0
 _ZN13QMetaSequence12MetaSequenceI5QListI15QSslCertificateEE5valueE@Base 6.0.0
 _ZN13QMetaSequence12MetaSequenceI5QListI4QUrlEE5valueE@Base 6.0.0
 _ZN13QMetaSequence12MetaSequenceI5QListIN3KIO8UDSEntryEEE5valueE@Base 6.0.0
 _ZN13QMetaSequence12MetaSequenceI5QListIN9QSslError8SslErrorEEE5valueE@Base 6.0.0
 _ZN13QMetaSequence12MetaSequenceI5QListISt4pairI9KFileItemS3_EEE5valueE@Base 6.0.0
 _ZN14KCoreDirLister10forgetDirsERK4QUrl@Base 6.0.0
 _ZN14KCoreDirLister10itemsAddedERK4QUrlRK13KFileItemList@Base 6.0.0
 _ZN14KCoreDirLister10jobStartedEPN3KIO7ListJobE@Base 6.0.0
 _ZN14KCoreDirLister11emitChangesEv@Base 6.0.0
 _ZN14KCoreDirLister11infoMessageERK7QString@Base 6.0.0
 _ZN14KCoreDirLister11qt_metacallEN11QMetaObject4CallEiPPv@Base 6.0.0
 _ZN14KCoreDirLister11qt_metacastEPKc@Base 6.0.0
 _ZN14KCoreDirLister11redirectionERK4QUrlS2_@Base 6.0.0
 _ZN14KCoreDirLister12itemsDeletedERK13KFileItemList@Base 6.0.0
 _ZN14KCoreDirLister12refreshItemsERK5QListISt4pairI9KFileItemS2_EE@Base 6.0.0
 _ZN14KCoreDirLister13processedSizeEy@Base 6.0.0
 _ZN14KCoreDirLister13setAutoUpdateEb@Base 6.0.0
 _ZN14KCoreDirLister13setMimeFilterERK5QListI7QStringE@Base 6.0.0
 _ZN14KCoreDirLister13setNameFilterERK7QString@Base 6.0.0
 _ZN14KCoreDirLister14setDirOnlyModeEb@Base 6.0.0
 _ZN14KCoreDirLister15clearMimeFilterEv@Base 6.0.0
 _ZN14KCoreDirLister15updateDirectoryERK4QUrl@Base 6.0.0
 _ZN14KCoreDirLister16cachedItemForUrlERK4QUrl@Base 6.0.0
 _ZN14KCoreDirLister16staticMetaObjectE@Base 6.0.0
 _ZN14KCoreDirLister18listingDirCanceledERK4QUrl@Base 6.0.0
 _ZN14KCoreDirLister18setShowHiddenFilesEb@Base 6.0.0
 _ZN14KCoreDirLister19itemsFilteredByMimeERK13KFileItemList@Base 6.0.0
 _ZN14KCoreDirLister19listingDirCompletedERK4QUrl@Base 6.0.0
 _ZN14KCoreDirLister19setDelayedMimeTypesEb@Base 6.0.0
 _ZN14KCoreDirLister20setMimeExcludeFilterERK5QListI7QStringE@Base 6.0.0
 _ZN14KCoreDirLister27setAutoErrorHandlingEnabledEb@Base 6.0.0
 _ZN14KCoreDirLister30setRequestMimeTypeWhileListingEb@Base 6.0.0
 _ZN14KCoreDirLister4stopERK4QUrl@Base 6.0.0
 _ZN14KCoreDirLister4stopEv@Base 6.0.0
 _ZN14KCoreDirLister5clearEv@Base 6.0.0
 _ZN14KCoreDirLister5speedEi@Base 6.0.0
 _ZN14KCoreDirLister7openUrlERK4QUrl6QFlagsINS_11OpenUrlFlagEE@Base 6.0.0
 _ZN14KCoreDirLister7percentEi@Base 6.0.0
 _ZN14KCoreDirLister7startedERK4QUrl@Base 6.0.0
 _ZN14KCoreDirLister8canceledEv@Base 6.0.0
 _ZN14KCoreDirLister8clearDirERK4QUrl@Base 6.0.0
 _ZN14KCoreDirLister8jobErrorEPN3KIO3JobE@Base 6.0.0
 _ZN14KCoreDirLister8newItemsERK13KFileItemList@Base 6.0.0
 _ZN14KCoreDirLister9completedEv@Base 6.0.0
 _ZN14KCoreDirLister9totalSizeEy@Base 6.0.0
 _ZN14KCoreDirListerC1EP7QObject@Base 6.0.0
 _ZN14KCoreDirListerC2EP7QObject@Base 6.0.0
 _ZN14KCoreDirListerD0Ev@Base 6.0.0
 _ZN14KCoreDirListerD1Ev@Base 6.0.0
 _ZN14KCoreDirListerD2Ev@Base 6.0.0
 _ZN14KUrlAuthorized14allowUrlActionERK7QStringRK4QUrlS5_@Base 6.0.0
 _ZN14KUrlAuthorized18authorizeUrlActionERK7QStringRK4QUrlS5_@Base 6.0.0
 _ZN15KRecentDocument10recentUrlsEv@Base 6.0.0
 _ZN15KRecentDocument10removeFileERK4QUrl@Base 6.6.0
 _ZN15KRecentDocument12maximumItemsEv@Base 6.0.0
 _ZN15KRecentDocument17removeApplicationERK7QString@Base 6.6.0
 _ZN15KRecentDocument28removeBookmarksModifiedSinceERK9QDateTime@Base 6.6.0
 _ZN15KRecentDocument3addERK4QUrl5QListINS_19RecentDocumentGroupEE@Base 6.0.0
 _ZN15KRecentDocument3addERK4QUrl@Base 6.0.0
 _ZN15KRecentDocument3addERK4QUrlRK7QString5QListINS_19RecentDocumentGroupEE@Base 6.0.0
 _ZN15KRecentDocument3addERK4QUrlRK7QString@Base 6.0.0
 _ZN15KRecentDocument5clearEv@Base 6.0.0
 _ZN15KRemoteEncoding11setEncodingEPKc@Base 6.0.0
 _ZN15KRemoteEncoding12virtual_hookEiPv@Base 6.0.0
 _ZN15KRemoteEncodingC1EPKc@Base 6.0.0
 _ZN15KRemoteEncodingC2EPKc@Base 6.0.0
 _ZN15KRemoteEncodingD0Ev@Base 6.0.0
 _ZN15KRemoteEncodingD1Ev@Base 6.0.0
 _ZN15KRemoteEncodingD2Ev@Base 6.0.0
 _ZN15KSambaShareData10setCommentERK7QString@Base 6.0.0
 _ZN15KSambaShareData18setGuestPermissionERKNS_15GuestPermissionE@Base 6.0.0
 _ZN15KSambaShareData4saveEv@Base 6.0.0
 _ZN15KSambaShareData6removeEv@Base 6.0.0
 _ZN15KSambaShareData6setAclERK7QString@Base 6.0.0
 _ZN15KSambaShareData7setNameERK7QString@Base 6.0.0
 _ZN15KSambaShareData7setPathERK7QString@Base 6.0.0
 _ZN15KSambaShareDataC1ERKS_@Base 6.0.0
 _ZN15KSambaShareDataC1Ev@Base 6.0.0
 _ZN15KSambaShareDataC2ERKS_@Base 6.0.0
 _ZN15KSambaShareDataC2Ev@Base 6.0.0
 _ZN15KSambaShareDataD1Ev@Base 6.0.0
 _ZN15KSambaShareDataD2Ev@Base 6.0.0
 _ZN15KSambaShareDataaSERKS_@Base 6.0.0
 _ZN15KSslErrorUiDataC1EPK10QSslSocket@Base 6.0.0
 _ZN15KSslErrorUiDataC1EPK13QNetworkReplyRK5QListI9QSslErrorE@Base 6.0.0
 _ZN15KSslErrorUiDataC1ERKS_@Base 6.0.0
 _ZN15KSslErrorUiDataC1Ev@Base 6.0.0
 _ZN15KSslErrorUiDataC2EPK10QSslSocket@Base 6.0.0
 _ZN15KSslErrorUiDataC2EPK13QNetworkReplyRK5QListI9QSslErrorE@Base 6.0.0
 _ZN15KSslErrorUiDataC2ERKS_@Base 6.0.0
 _ZN15KSslErrorUiDataC2Ev@Base 6.0.0
 _ZN15KSslErrorUiDataD1Ev@Base 6.0.0
 _ZN15KSslErrorUiDataD2Ev@Base 6.0.0
 _ZN15KSslErrorUiDataaSERKS_@Base 6.0.0
 _ZN16KProtocolManager10autoResumeEv@Base 6.0.0
 _ZN16KProtocolManager10charsetForERK4QUrl@Base 6.0.0
 _ZN16KProtocolManager10outputTypeERK4QUrl@Base 6.0.0
 _ZN16KProtocolManager11markPartialEv@Base 6.0.0
 _ZN16KProtocolManager11readTimeoutEv@Base 6.0.0
 _ZN16KProtocolManager13canCopyToFileERK4QUrl@Base 6.0.0
 _ZN16KProtocolManager14connectTimeoutEv@Base 6.0.0
 _ZN16KProtocolManager14supportsMovingERK4QUrl@Base 6.0.0
 _ZN16KProtocolManager15canCopyFromFileERK4QUrl@Base 6.0.0
 _ZN16KProtocolManager15canRenameToFileERK4QUrl@Base 6.0.0
 _ZN16KProtocolManager15defaultMimetypeERK4QUrl@Base 6.0.0
 _ZN16KProtocolManager15minimumKeepSizeEv@Base 6.0.0
 _ZN16KProtocolManager15responseTimeoutEv@Base 6.0.0
 _ZN16KProtocolManager15supportsLinkingERK4QUrl@Base 6.0.0
 _ZN16KProtocolManager15supportsListingERK4QUrl@Base 6.0.0
 _ZN16KProtocolManager15supportsMakeDirERK4QUrl@Base 6.0.0
 _ZN16KProtocolManager15supportsOpeningERK4QUrl@Base 6.0.0
 _ZN16KProtocolManager15supportsReadingERK4QUrl@Base 6.0.0
 _ZN16KProtocolManager15supportsWritingERK4QUrl@Base 6.0.0
 _ZN16KProtocolManager16isSourceProtocolERK4QUrl@Base 6.0.0
 _ZN16KProtocolManager16supportsDeletingERK4QUrl@Base 6.0.0
 _ZN16KProtocolManager17canRenameFromFileERK4QUrl@Base 6.0.0
 _ZN16KProtocolManager18canDeleteRecursiveERK4QUrl@Base 6.0.0
 _ZN16KProtocolManager18supportsTruncatingERK4QUrl@Base 6.0.0
 _ZN16KProtocolManager19proxyConnectTimeoutEv@Base 6.0.0
 _ZN16KProtocolManager19supportsPermissionsERK4QUrl@Base 6.0.0
 _ZN16KProtocolManager20reparseConfigurationEv@Base 6.0.0
 _ZN16KProtocolManager22fileNameUsedForCopyingERK4QUrl@Base 6.0.0
 _ZN16KProtocolManager26protocolForArchiveMimetypeERK7QString@Base 6.0.0
 _ZN16KProtocolManager7listingERK4QUrl@Base 6.0.0
 _ZN16KProtocolManager9inputTypeERK4QUrl@Base 6.0.0
 _ZN18KOverlayIconPlugin11qt_metacallEN11QMetaObject4CallEiPPv@Base 6.0.0
 _ZN18KOverlayIconPlugin11qt_metacastEPKc@Base 6.0.0
 _ZN18KOverlayIconPlugin15overlaysChangedERK4QUrlRK5QListI7QStringE@Base 6.0.0
 _ZN18KOverlayIconPlugin16staticMetaObjectE@Base 6.0.0
 _ZN18KOverlayIconPluginC1EP7QObject@Base 6.0.0
 _ZN18KOverlayIconPluginC2EP7QObject@Base 6.0.0
 _ZN18KOverlayIconPluginD0Ev@Base 6.0.0
 _ZN18KOverlayIconPluginD1Ev@Base 6.0.0
 _ZN18KOverlayIconPluginD2Ev@Base 6.0.0
 _ZN19KPasswdServerClient11addAuthInfoERKN3KIO8AuthInfoEx@Base 6.0.0
 _ZN19KPasswdServerClient13checkAuthInfoEPN3KIO8AuthInfoExx@Base 6.0.0
 _ZN19KPasswdServerClient13queryAuthInfoEPN3KIO8AuthInfoERK7QStringxx@Base 6.0.0
 _ZN19KPasswdServerClient14removeAuthInfoERK7QStringS2_S2_@Base 6.0.0
 _ZN19KPasswdServerClientC1Ev@Base 6.0.0
 _ZN19KPasswdServerClientC2Ev@Base 6.0.0
 _ZN19KPasswdServerClientD1Ev@Base 6.0.0
 _ZN19KPasswdServerClientD2Ev@Base 6.0.0
 _ZN19KSslCertificateRule11setRejectedEb@Base 6.0.0
 _ZN19KSslCertificateRule16setIgnoredErrorsERK5QListI9QSslErrorE@Base 6.0.0
 _ZN19KSslCertificateRule16setIgnoredErrorsERK5QListIN9QSslError8SslErrorEE@Base 6.0.0
 _ZN19KSslCertificateRule17setExpiryDateTimeERK9QDateTime@Base 6.0.0
 _ZN19KSslCertificateRuleC1ERK15QSslCertificateRK7QString@Base 6.0.0
 _ZN19KSslCertificateRuleC1ERKS_@Base 6.0.0
 _ZN19KSslCertificateRuleC2ERK15QSslCertificateRK7QString@Base 6.0.0
 _ZN19KSslCertificateRuleC2ERKS_@Base 6.0.0
 _ZN19KSslCertificateRuleD1Ev@Base 6.0.0
 _ZN19KSslCertificateRuleD2Ev@Base 6.0.0
 _ZN19KSslCertificateRuleaSERKS_@Base 6.0.0
 _ZN22KSslCertificateManager18nonIgnorableErrorsERK5QListI9QSslErrorE@Base 6.0.0
 _ZN22KSslCertificateManager4selfEv@Base 6.0.0
 _ZN22KSslCertificateManager7setRuleERK19KSslCertificateRule@Base 6.0.0
 _ZN22KSslCertificateManager9clearRuleERK15QSslCertificateRK7QString@Base 6.0.0
 _ZN22KSslCertificateManager9clearRuleERK19KSslCertificateRule@Base 6.0.0
 _ZN23KFileItemListProperties8setItemsERK13KFileItemList@Base 6.0.0
 _ZN23KFileItemListPropertiesC1ERK13KFileItemList@Base 6.0.0
 _ZN23KFileItemListPropertiesC1ERKS_@Base 6.0.0
 _ZN23KFileItemListPropertiesC1Ev@Base 6.0.0
 _ZN23KFileItemListPropertiesC2ERK13KFileItemList@Base 6.0.0
 _ZN23KFileItemListPropertiesC2ERKS_@Base 6.0.0
 _ZN23KFileItemListPropertiesC2Ev@Base 6.0.0
 _ZN23KFileItemListPropertiesD0Ev@Base 6.0.0
 _ZN23KFileItemListPropertiesD1Ev@Base 6.0.0
 _ZN23KFileItemListPropertiesD2Ev@Base 6.0.0
 _ZN23KFileItemListPropertiesaSERKS_@Base 6.0.0
 _ZN23KProtocolManagerPrivate4syncEv@Base 6.0.0
 _ZN23KProtocolManagerPrivateC1Ev@Base 6.0.0
 _ZN23KProtocolManagerPrivateC2Ev@Base 6.0.0
 _ZN23KProtocolManagerPrivateD1Ev@Base 6.0.0
 _ZN23KProtocolManagerPrivateD2Ev@Base 6.0.0
 _ZN25OrgKdeKDirNotifyInterface10FilesAddedERK7QString@Base 6.0.0
 _ZN25OrgKdeKDirNotifyInterface11FileRenamedERK7QStringS2_@Base 6.0.0
 _ZN25OrgKdeKDirNotifyInterface11qt_metacallEN11QMetaObject4CallEiPPv@Base 6.0.0
 _ZN25OrgKdeKDirNotifyInterface11qt_metacastEPKc@Base 6.0.0
 _ZN25OrgKdeKDirNotifyInterface12FilesChangedERK5QListI7QStringE@Base 6.0.0
 _ZN25OrgKdeKDirNotifyInterface12FilesRemovedERK5QListI7QStringE@Base 6.0.0
 _ZN25OrgKdeKDirNotifyInterface13emitFileMovedERK4QUrlS2_@Base 6.0.0
 _ZN25OrgKdeKDirNotifyInterface13leftDirectoryERK7QString@Base 6.0.0
 _ZN25OrgKdeKDirNotifyInterface14emitFilesAddedERK4QUrl@Base 6.0.0
 _ZN25OrgKdeKDirNotifyInterface15emitFileRenamedERK4QUrlS2_@Base 6.0.0
 _ZN25OrgKdeKDirNotifyInterface16emitFilesChangedERK5QListI4QUrlE@Base 6.0.0
 _ZN25OrgKdeKDirNotifyInterface16emitFilesRemovedERK5QListI4QUrlE@Base 6.0.0
 _ZN25OrgKdeKDirNotifyInterface16enteredDirectoryERK7QString@Base 6.0.0
 _ZN25OrgKdeKDirNotifyInterface16staticMetaObjectE@Base 6.0.0
 _ZN25OrgKdeKDirNotifyInterface17emitLeftDirectoryERK4QUrl@Base 6.0.0
 _ZN25OrgKdeKDirNotifyInterface20emitEnteredDirectoryERK4QUrl@Base 6.0.0
 _ZN25OrgKdeKDirNotifyInterface24FileRenamedWithLocalPathERK7QStringS2_S2_@Base 6.0.0
 _ZN25OrgKdeKDirNotifyInterface28emitFileRenamedWithLocalPathERK4QUrlS2_RK7QString@Base 6.0.0
 _ZN25OrgKdeKDirNotifyInterface9FileMovedERK7QStringS2_@Base 6.0.0
 _ZN25OrgKdeKDirNotifyInterfaceC1ERK7QStringS2_RK15QDBusConnectionP7QObject@Base 6.0.0
 _ZN25OrgKdeKDirNotifyInterfaceC2ERK7QStringS2_RK15QDBusConnectionP7QObject@Base 6.0.0
 _ZN25OrgKdeKDirNotifyInterfaceD0Ev@Base 6.0.0
 _ZN25OrgKdeKDirNotifyInterfaceD1Ev@Base 6.0.0
 _ZN25OrgKdeKDirNotifyInterfaceD2Ev@Base 6.0.0
 _ZN3KIO10JobPrivate10emitMovingEPNS_3JobERK4QUrlS5_@Base 6.0.0
 _ZN3KIO10JobPrivate11emitCopyingEPNS_3JobERK4QUrlS5_@Base 6.0.0
 _ZN3KIO10JobPrivate11emitStatingEPNS_3JobERK4QUrl@Base 6.0.0
 _ZN3KIO10JobPrivate12emitDeletingEPNS_3JobERK4QUrl@Base 6.0.0
 _ZN3KIO10JobPrivate12emitMountingEPNS_3JobERK7QStringS5_@Base 6.0.0
 _ZN3KIO10JobPrivate12emitRenamingEPNS_3JobERK4QUrlS5_@Base 6.0.0
 _ZN3KIO10JobPrivate14emitUnmountingEPNS_3JobERK7QString@Base 6.0.0
 _ZN3KIO10JobPrivate15emitCreatingDirEPNS_3JobERK4QUrl@Base 6.0.0
 _ZN3KIO10JobPrivate16emitTransferringEPNS_3JobERK4QUrl@Base 6.0.0
 _ZN3KIO10JobPrivate22privilegeOperationDataEv@Base 6.0.0
 _ZN3KIO10JobPrivateD0Ev@Base 6.0.0
 _ZN3KIO10JobPrivateD1Ev@Base 6.0.0
 _ZN3KIO10JobPrivateD2Ev@Base 6.0.0
 _ZN3KIO10RestoreJob10slotResultEP4KJob@Base 6.0.0
 _ZN3KIO10RestoreJob11qt_metacallEN11QMetaObject4CallEiPPv@Base 6.0.0
 _ZN3KIO10RestoreJob11qt_metacastEPKc@Base 6.0.0
 _ZN3KIO10RestoreJob16staticMetaObjectE@Base 6.0.0
 _ZN3KIO10RestoreJobD0Ev@Base 6.0.0
 _ZN3KIO10RestoreJobD1Ev@Base 6.0.0
 _ZN3KIO10RestoreJobD2Ev@Base 6.0.0
 _ZN3KIO10SpecialJob11qt_metacallEN11QMetaObject4CallEiPPv@Base 6.0.0
 _ZN3KIO10SpecialJob11qt_metacastEPKc@Base 6.0.0
 _ZN3KIO10SpecialJob12setArgumentsERK10QByteArray@Base 6.0.0
 _ZN3KIO10SpecialJob16staticMetaObjectE@Base 6.0.0
 _ZN3KIO10SpecialJobC1ERK4QUrlRK10QByteArray@Base 6.0.0
 _ZN3KIO10SpecialJobC2ERK4QUrlRK10QByteArray@Base 6.0.0
 _ZN3KIO10SpecialJobD0Ev@Base 6.0.0
 _ZN3KIO10SpecialJobD1Ev@Base 6.0.0
 _ZN3KIO10SpecialJobD2Ev@Base 6.0.0
 _ZN3KIO10WorkerBase10lookupHostERK7QString@Base 6.0.0
 _ZN3KIO10WorkerBase10messageBoxENS0_14MessageBoxTypeERK7QStringS4_S4_S4_@Base 6.0.0
 _ZN3KIO10WorkerBase10messageBoxERK7QStringNS0_14MessageBoxTypeES3_S3_S3_S3_@Base 6.0.0
 _ZN3KIO10WorkerBase11infoMessageERK7QString@Base 6.0.0
 _ZN3KIO10WorkerBase11listEntriesERK5QListINS_8UDSEntryEE@Base 6.0.0
 _ZN3KIO10WorkerBase11readTimeoutEv@Base 6.0.0
 _ZN3KIO10WorkerBase11redirectionERK4QUrl@Base 6.0.0
 _ZN3KIO10WorkerBase11setMetaDataERK7QStringS3_@Base 6.0.0
 _ZN3KIO10WorkerBase12dispatchLoopEv@Base 6.0.0
 _ZN3KIO10WorkerBase12sendMetaDataEv@Base 6.0.0
 _ZN3KIO10WorkerBase12workerStatusERK7QStringb@Base 6.0.0
 _ZN3KIO10WorkerBase13connectWorkerERK7QString@Base 6.0.0
 _ZN3KIO10WorkerBase13processedSizeEy@Base 6.0.0
 _ZN3KIO10WorkerBase13waitForAnswerEiiR10QByteArrayPi@Base 6.0.0
 _ZN3KIO10WorkerBase13worker_statusEv@Base 6.0.0
 _ZN3KIO10WorkerBase14connectTimeoutEv@Base 6.0.0
 _ZN3KIO10WorkerBase14openConnectionEv@Base 6.0.0
 _ZN3KIO10WorkerBase14remoteEncodingEv@Base 6.0.0
 _ZN3KIO10WorkerBase15closeConnectionEv@Base 6.0.0
 _ZN3KIO10WorkerBase15responseTimeoutEv@Base 6.0.0
 _ZN3KIO10WorkerBase15waitForHostInfoER9QHostInfo@Base 6.0.0
 _ZN3KIO10WorkerBase16disconnectWorkerEv@Base 6.0.0
 _ZN3KIO10WorkerBase17appConnectionMadeEv@Base 6.0.0
 _ZN3KIO10WorkerBase18openPasswordDialogERNS_8AuthInfoERK7QString@Base 6.0.0
 _ZN3KIO10WorkerBase19cacheAuthenticationERKNS_8AuthInfoE@Base 6.0.0
 _ZN3KIO10WorkerBase19fileSystemFreeSpaceERK4QUrl@Base 6.0.0
 _ZN3KIO10WorkerBase19proxyConnectTimeoutEv@Base 6.0.0
 _ZN3KIO10WorkerBase19sendAndKeepMetaDataEv@Base 6.0.0
 _ZN3KIO10WorkerBase19setIncomingMetaDataERKNS_8MetaDataE@Base 6.0.0
 _ZN3KIO10WorkerBase19setModificationTimeERK4QUrlRK9QDateTime@Base 6.0.0
 _ZN3KIO10WorkerBase20reparseConfigurationEv@Base 6.0.0
 _ZN3KIO10WorkerBase24setTimeoutSpecialCommandEiRK10QByteArray@Base 6.0.0
 _ZN3KIO10WorkerBase25addTemporaryAuthorizationERK7QString@Base 6.0.0
 _ZN3KIO10WorkerBase25checkCachedAuthenticationERNS_8AuthInfoE@Base 6.0.0
 _ZN3KIO10WorkerBase25requestPrivilegeOperationERK7QString@Base 6.0.0
 _ZN3KIO10WorkerBase3delERK4QUrlb@Base 6.0.0
 _ZN3KIO10WorkerBase3getERK4QUrl@Base 6.0.0
 _ZN3KIO10WorkerBase3putERK4QUrli6QFlagsINS_7JobFlagEE@Base 6.0.0
 _ZN3KIO10WorkerBase4copyERK4QUrlS3_i6QFlagsINS_7JobFlagEE@Base 6.0.0
 _ZN3KIO10WorkerBase4dataERK10QByteArray@Base 6.0.0
 _ZN3KIO10WorkerBase4exitEv@Base 6.0.0
 _ZN3KIO10WorkerBase4openERK4QUrl6QFlagsIN13QIODeviceBase12OpenModeFlagEE@Base 6.0.0
 _ZN3KIO10WorkerBase4readEy@Base 6.0.0
 _ZN3KIO10WorkerBase4seekEy@Base 6.0.0
 _ZN3KIO10WorkerBase4statERK4QUrl@Base 6.0.0
 _ZN3KIO10WorkerBase5chmodERK4QUrli@Base 6.0.0
 _ZN3KIO10WorkerBase5chownERK4QUrlRK7QStringS6_@Base 6.0.0
 _ZN3KIO10WorkerBase5closeEv@Base 6.0.0
 _ZN3KIO10WorkerBase5mkdirERK4QUrli@Base 6.0.0
 _ZN3KIO10WorkerBase5speedEm@Base 6.0.0
 _ZN3KIO10WorkerBase5writeERK10QByteArray@Base 6.0.0
 _ZN3KIO10WorkerBase6configEv@Base 6.0.0
 _ZN3KIO10WorkerBase6renameERK4QUrlS3_6QFlagsINS_7JobFlagEE@Base 6.0.0
 _ZN3KIO10WorkerBase7dataReqEv@Base 6.0.0
 _ZN3KIO10WorkerBase7listDirERK4QUrl@Base 6.0.0
 _ZN3KIO10WorkerBase7setHostERK7QStringtS3_S3_@Base 6.0.0
 _ZN3KIO10WorkerBase7specialERK10QByteArray@Base 6.0.0
 _ZN3KIO10WorkerBase7symlinkERK7QStringRK4QUrl6QFlagsINS_7JobFlagEE@Base 6.0.0
 _ZN3KIO10WorkerBase7warningERK7QString@Base 6.0.0
 _ZN3KIO10WorkerBase7writtenEy@Base 6.0.0
 _ZN3KIO10WorkerBase8mimeTypeERK7QString@Base 6.0.0
 _ZN3KIO10WorkerBase8mimetypeERK4QUrl@Base 6.0.0
 _ZN3KIO10WorkerBase8positionEy@Base 6.0.0
 _ZN3KIO10WorkerBase8readDataER10QByteArray@Base 6.0.0
 _ZN3KIO10WorkerBase8sslErrorERK4QMapI7QString8QVariantE@Base 6.0.0
 _ZN3KIO10WorkerBase8truncateEy@Base 6.0.0
 _ZN3KIO10WorkerBase9canResumeEv@Base 6.0.0
 _ZN3KIO10WorkerBase9canResumeEy@Base 6.0.0
 _ZN3KIO10WorkerBase9errorPageEv@Base 6.0.0
 _ZN3KIO10WorkerBase9listEntryERKNS_8UDSEntryE@Base 6.0.0
 _ZN3KIO10WorkerBase9statEntryERKNS_8UDSEntryE@Base 6.0.0
 _ZN3KIO10WorkerBase9totalSizeEy@Base 6.0.0
 _ZN3KIO10WorkerBase9truncatedEy@Base 6.0.0
 _ZN3KIO10WorkerBaseC1ERK10QByteArrayS3_S3_@Base 6.0.0
 _ZN3KIO10WorkerBaseC2ERK10QByteArrayS3_S3_@Base 6.0.0
 _ZN3KIO10WorkerBaseD0Ev@Base 6.0.0
 _ZN3KIO10WorkerBaseD1Ev@Base 6.0.0
 _ZN3KIO10WorkerBaseD2Ev@Base 6.0.0
 _ZN3KIO10emptyTrashEv@Base 6.0.0
 _ZN3KIO11FileCopyJob10slotResultEP4KJob@Base 6.0.0
 _ZN3KIO11FileCopyJob11qt_metacallEN11QMetaObject4CallEiPPv@Base 6.0.0
 _ZN3KIO11FileCopyJob11qt_metacastEPKc@Base 6.0.0
 _ZN3KIO11FileCopyJob13mimeTypeFoundEPNS_3JobERK7QString@Base 6.0.0
 _ZN3KIO11FileCopyJob13setSourceSizeEy@Base 6.0.0
 _ZN3KIO11FileCopyJob16staticMetaObjectE@Base 6.0.0
 _ZN3KIO11FileCopyJob19setModificationTimeERK9QDateTime@Base 6.0.0
 _ZN3KIO11FileCopyJob6doKillEv@Base 6.0.0
 _ZN3KIO11FileCopyJob8doResumeEv@Base 6.0.0
 _ZN3KIO11FileCopyJob9doSuspendEv@Base 6.0.0
 _ZN3KIO11FileCopyJobD0Ev@Base 6.0.0
 _ZN3KIO11FileCopyJobD1Ev@Base 6.0.0
 _ZN3KIO11FileCopyJobD2Ev@Base 6.0.0
 _ZN3KIO11MimetypeJob11qt_metacallEN11QMetaObject4CallEiPPv@Base 6.0.0
 _ZN3KIO11MimetypeJob11qt_metacastEPKc@Base 6.0.0
 _ZN3KIO11MimetypeJob12slotFinishedEv@Base 6.0.0
 _ZN3KIO11MimetypeJob16staticMetaObjectE@Base 6.0.0
 _ZN3KIO11MimetypeJobD0Ev@Base 6.0.0
 _ZN3KIO11MimetypeJobD1Ev@Base 6.0.0
 _ZN3KIO11MimetypeJobD2Ev@Base 6.0.0
 _ZN3KIO11TransferJob11qt_metacallEN11QMetaObject4CallEiPPv@Base 6.0.0
 _ZN3KIO11TransferJob11qt_metacastEPKc@Base 6.0.0
 _ZN3KIO11TransferJob11redirectionEPNS_3JobERK4QUrl@Base 6.0.0
 _ZN3KIO11TransferJob11slotDataReqEv@Base 6.0.0
 _ZN3KIO11TransferJob12setTotalSizeEy@Base 6.0.0
 _ZN3KIO11TransferJob12slotFinishedEv@Base 6.0.0
 _ZN3KIO11TransferJob12slotMimetypeERK7QString@Base 6.0.0
 _ZN3KIO11TransferJob13mimeTypeFoundEPNS_3JobERK7QString@Base 6.0.0
 _ZN3KIO11TransferJob13sendAsyncDataERK10QByteArray@Base 6.0.0
 _ZN3KIO11TransferJob15slotRedirectionERK4QUrl@Base 6.0.0
 _ZN3KIO11TransferJob16staticMetaObjectE@Base 6.0.0
 _ZN3KIO11TransferJob19setAsyncDataEnabledEb@Base 6.0.0
 _ZN3KIO11TransferJob19setModificationTimeERK9QDateTime@Base 6.0.0
 _ZN3KIO11TransferJob20permanentRedirectionEPNS_3JobERK4QUrlS5_@Base 6.0.0
 _ZN3KIO11TransferJob4dataEPNS_3JobERK10QByteArray@Base 6.0.0
 _ZN3KIO11TransferJob7dataReqEPNS_3JobER10QByteArray@Base 6.0.0
 _ZN3KIO11TransferJob8doResumeEv@Base 6.0.0
 _ZN3KIO11TransferJob8slotDataERK10QByteArray@Base 6.0.0
 _ZN3KIO11TransferJob9canResumeEPNS_3JobEy@Base 6.0.0
 _ZN3KIO11TransferJobD0Ev@Base 6.0.0
 _ZN3KIO11TransferJobD1Ev@Base 6.0.0
 _ZN3KIO11TransferJobD2Ev@Base 6.0.0
 _ZN3KIO11batchRenameERK5QListI4QUrlERK7QStringi5QChar6QFlagsINS_7JobFlagEE@Base 6.0.0
 _ZN3KIO11convertSizeEy@Base 6.0.0
 _ZN3KIO11davPropFindERK4QUrlRK7QStringS5_6QFlagsINS_7JobFlagEE@Base 6.0.0
 _ZN3KIO11file_deleteERK4QUrl6QFlagsINS_7JobFlagEE@Base 6.0.0
 _ZN3KIO11http_deleteERK4QUrl6QFlagsINS_7JobFlagEE@Base 6.0.0
 _ZN3KIO12WorkerResult4failEiRK7QString@Base 6.0.0
 _ZN3KIO12WorkerResult4passEv@Base 6.0.0
 _ZN3KIO12WorkerResultC1EOS0_@Base 6.0.0
 _ZN3KIO12WorkerResultC1ERKS0_@Base 6.0.0
 _ZN3KIO12WorkerResultC2EOS0_@Base 6.0.0
 _ZN3KIO12WorkerResultC2ERKS0_@Base 6.0.0
 _ZN3KIO12WorkerResultD1Ev@Base 6.0.0
 _ZN3KIO12WorkerResultD2Ev@Base 6.0.0
 _ZN3KIO12WorkerResultaSEOS0_@Base 6.0.0
 _ZN3KIO12WorkerResultaSERKS0_@Base 6.0.0
 _ZN3KIO12davPropPatchERK4QUrlRK7QString6QFlagsINS_7JobFlagEE@Base 6.0.0
 _ZN3KIO12mostLocalUrlERK4QUrl6QFlagsINS_7JobFlagEE@Base 6.0.0
 _ZN3KIO13EmptyTrashJob11qt_metacallEN11QMetaObject4CallEiPPv@Base 6.0.0
 _ZN3KIO13EmptyTrashJob11qt_metacastEPKc@Base 6.0.0
 _ZN3KIO13EmptyTrashJob12slotFinishedEv@Base 6.0.0
 _ZN3KIO13EmptyTrashJob16staticMetaObjectE@Base 6.0.0
 _ZN3KIO13EmptyTrashJobD0Ev@Base 6.0.0
 _ZN3KIO13EmptyTrashJobD1Ev@Base 6.0.0
 _ZN3KIO13EmptyTrashJobD2Ev@Base 6.0.0
 _ZN3KIO13FavIconsCache10iconForUrlERK4QUrl@Base 6.0.0
 _ZN3KIO13FavIconsCache11qt_metacallEN11QMetaObject4CallEiPPv@Base 6.0.0
 _ZN3KIO13FavIconsCache11qt_metacastEPKc@Base 6.0.0
 _ZN3KIO13FavIconsCache13iconUrlForUrlERK4QUrl@Base 6.0.0
 _ZN3KIO13FavIconsCache13setIconForUrlERK4QUrlS3_@Base 6.0.0
 _ZN3KIO13FavIconsCache16staticMetaObjectE@Base 6.0.0
 _ZN3KIO13FavIconsCache17addFailedDownloadERK4QUrl@Base 6.0.0
 _ZN3KIO13FavIconsCache17ensureCacheExistsEv@Base 6.0.0
 _ZN3KIO13FavIconsCache20removeFailedDownloadERK4QUrl@Base 6.0.0
 _ZN3KIO13FavIconsCache8instanceEv@Base 6.0.0
 _ZN3KIO13NameFinderJob11qt_metacallEN11QMetaObject4CallEiPPv@Base 6.0.0
 _ZN3KIO13NameFinderJob11qt_metacastEPKc@Base 6.0.0
 _ZN3KIO13NameFinderJob16staticMetaObjectE@Base 6.0.0
 _ZN3KIO13NameFinderJob5startEv@Base 6.0.0
 _ZN3KIO13NameFinderJobC1ERK4QUrlRK7QStringP7QObject@Base 6.0.0
 _ZN3KIO13NameFinderJobC2ERK4QUrlRK7QStringP7QObject@Base 6.0.0
 _ZN3KIO13NameFinderJobD0Ev@Base 6.0.0
 _ZN3KIO13NameFinderJobD1Ev@Base 6.0.0
 _ZN3KIO13NameFinderJobD2Ev@Base 6.0.0
 _ZN3KIO13WorkerFactory11qt_metacallEN11QMetaObject4CallEiPPv@Base 6.0.0
 _ZN3KIO13WorkerFactory11qt_metacastEPKc@Base 6.0.0
 _ZN3KIO13WorkerFactory16staticMetaObjectE@Base 6.0.0
 _ZN3KIO13WorkerFactoryC1EP7QObject@Base 6.0.0
 _ZN3KIO13WorkerFactoryC2EP7QObject@Base 6.0.0
 _ZN3KIO13directorySizeERK13KFileItemList@Base 6.0.0
 _ZN3KIO13directorySizeERK4QUrl@Base 6.0.0
 _ZN3KIO13favIconForUrlERK4QUrl@Base 6.0.0
 _ZN3KIO13getJobTrackerEv@Base 6.0.0
 _ZN3KIO13listRecursiveERK4QUrl6QFlagsINS_7JobFlagEES3_INS_7ListJob8ListFlagEE@Base 6.0.0
 _ZN3KIO13setJobTrackerEP20KJobTrackerInterface@Base 6.0.0
 _ZN3KIO14BatchRenameJob10slotResultEP4KJob@Base 6.0.0
 _ZN3KIO14BatchRenameJob11fileRenamedERK4QUrlS3_@Base 6.0.0
 _ZN3KIO14BatchRenameJob11qt_metacallEN11QMetaObject4CallEiPPv@Base 6.0.0
 _ZN3KIO14BatchRenameJob11qt_metacastEPKc@Base 6.0.0
 _ZN3KIO14BatchRenameJob16staticMetaObjectE@Base 6.0.0
 _ZN3KIO14BatchRenameJobD0Ev@Base 6.0.0
 _ZN3KIO14BatchRenameJobD1Ev@Base 6.0.0
 _ZN3KIO14BatchRenameJobD2Ev@Base 6.0.0
 _ZN3KIO14convertSecondsEj@Base 6.0.0
 _ZN3KIO14decodeFileNameERK7QString@Base 6.0.0
 _ZN3KIO14encodeFileNameERK7QString@Base 6.0.0
 _ZN3KIO14iconNameForUrlERK4QUrl@Base 6.0.0
 _ZN3KIO14rawErrorDetailEiRK7QStringPK4QUrli@Base 6.0.0
 _ZN3KIO14storedHttpPostEP9QIODeviceRK4QUrlx6QFlagsINS_7JobFlagEE@Base 6.0.0
 _ZN3KIO14storedHttpPostERK10QByteArrayRK4QUrl6QFlagsINS_7JobFlagEE@Base 6.0.0
 _ZN3KIO16DirectorySizeJob10slotResultEP4KJob@Base 6.0.0
 _ZN3KIO16DirectorySizeJob11qt_metacallEN11QMetaObject4CallEiPPv@Base 6.0.0
 _ZN3KIO16DirectorySizeJob11qt_metacastEPKc@Base 6.0.0
 _ZN3KIO16DirectorySizeJob16staticMetaObjectE@Base 6.0.0
 _ZN3KIO16DirectorySizeJobD0Ev@Base 6.0.0
 _ZN3KIO16DirectorySizeJobD1Ev@Base 6.0.0
 _ZN3KIO16DirectorySizeJobD2Ev@Base 6.0.0
 _ZN3KIO16buildErrorStringEiRK7QString@Base 6.0.0
 _ZN3KIO16restoreFromTrashERK5QListI4QUrlE6QFlagsINS_7JobFlagEE@Base 6.0.0
 _ZN3KIO17DesktopExecParser14executableNameERK7QString@Base 6.0.0
 _ZN3KIO17DesktopExecParser14executablePathERK7QString@Base 6.0.0
 _ZN3KIO17DesktopExecParser16hasSchemeHandlerERK4QUrl@Base 6.0.0
 _ZN3KIO17DesktopExecParser18supportedProtocolsERK8KService@Base 6.0.0
 _ZN3KIO17DesktopExecParser19setUrlsAreTempFilesEb@Base 6.0.0
 _ZN3KIO17DesktopExecParser20setSuggestedFileNameERK7QString@Base 6.0.0
 _ZN3KIO17DesktopExecParser25isProtocolInSupportedListERK4QUrlRK5QListI7QStringE@Base 6.0.0
 _ZN3KIO17DesktopExecParserC1ERK8KServiceRK5QListI4QUrlE@Base 6.0.0
 _ZN3KIO17DesktopExecParserC2ERK8KServiceRK5QListI4QUrlE@Base 6.0.0
 _ZN3KIO17DesktopExecParserD1Ev@Base 6.0.0
 _ZN3KIO17DesktopExecParserD2Ev@Base 6.0.0
 _ZN3KIO17MimeTypeFinderJob10slotResultEP4KJob@Base 6.0.0
 _ZN3KIO17MimeTypeFinderJob11qt_metacallEN11QMetaObject4CallEiPPv@Base 6.0.0
 _ZN3KIO17MimeTypeFinderJob11qt_metacastEPKc@Base 6.0.0
 _ZN3KIO17MimeTypeFinderJob16staticMetaObjectE@Base 6.0.0
 _ZN3KIO17MimeTypeFinderJob20setSuggestedFileNameERK7QString@Base 6.0.0
 _ZN3KIO17MimeTypeFinderJob21setFollowRedirectionsEb@Base 6.0.0
 _ZN3KIO17MimeTypeFinderJob30setAuthenticationPromptEnabledEb@Base 6.0.0
 _ZN3KIO17MimeTypeFinderJob5startEv@Base 6.0.0
 _ZN3KIO17MimeTypeFinderJob6doKillEv@Base 6.0.0
 _ZN3KIO17MimeTypeFinderJobC1ERK4QUrlP7QObject@Base 6.0.0
 _ZN3KIO17MimeTypeFinderJobC2ERK4QUrlP7QObject@Base 6.0.0
 _ZN3KIO17MimeTypeFinderJobD0Ev@Base 6.0.0
 _ZN3KIO17MimeTypeFinderJobD1Ev@Base 6.0.0
 _ZN3KIO17MimeTypeFinderJobD2Ev@Base 6.0.0
 _ZN3KIO17StoredTransferJob11qt_metacallEN11QMetaObject4CallEiPPv@Base 6.0.0
 _ZN3KIO17StoredTransferJob11qt_metacastEPKc@Base 6.0.0
 _ZN3KIO17StoredTransferJob16staticMetaObjectE@Base 6.0.0
 _ZN3KIO17StoredTransferJob7setDataERK10QByteArray@Base 6.0.0
 _ZN3KIO17StoredTransferJobD0Ev@Base 6.0.0
 _ZN3KIO17StoredTransferJobD1Ev@Base 6.0.0
 _ZN3KIO17StoredTransferJobD2Ev@Base 6.0.0
 _ZN3KIO17http_update_cacheERK4QUrlbRK9QDateTime@Base 6.0.0
 _ZN3KIO17parseCacheControlERK7QString@Base 6.0.0
 _ZN3KIO18convertPermissionsEi@Base 6.0.0
 _ZN3KIO18convertSizeFromKiBEy@Base 6.0.0
 _ZN3KIO18itemsSummaryStringEjjjyb@Base 6.0.0
 _ZN3KIO19fileSystemFreeSpaceERK4QUrl@Base 6.0.0
 _ZN3KIO19setModificationTimeERK4QUrlRK9QDateTime@Base 6.0.0
 _ZN3KIO20ForwardingWorkerBase11qt_metacallEN11QMetaObject4CallEiPPv@Base 6.0.0
 _ZN3KIO20ForwardingWorkerBase11qt_metacastEPKc@Base 6.0.0
 _ZN3KIO20ForwardingWorkerBase16staticMetaObjectE@Base 6.0.0
 _ZN3KIO20ForwardingWorkerBase19setModificationTimeERK4QUrlRK9QDateTime@Base 6.0.0
 _ZN3KIO20ForwardingWorkerBase3delERK4QUrlb@Base 6.0.0
 _ZN3KIO20ForwardingWorkerBase3getERK4QUrl@Base 6.0.0
 _ZN3KIO20ForwardingWorkerBase3putERK4QUrli6QFlagsINS_7JobFlagEE@Base 6.0.0
 _ZN3KIO20ForwardingWorkerBase4copyERK4QUrlS3_i6QFlagsINS_7JobFlagEE@Base 6.0.0
 _ZN3KIO20ForwardingWorkerBase4statERK4QUrl@Base 6.0.0
 _ZN3KIO20ForwardingWorkerBase5chmodERK4QUrli@Base 6.0.0
 _ZN3KIO20ForwardingWorkerBase5mkdirERK4QUrli@Base 6.0.0
 _ZN3KIO20ForwardingWorkerBase6renameERK4QUrlS3_6QFlagsINS_7JobFlagEE@Base 6.0.0
 _ZN3KIO20ForwardingWorkerBase7listDirERK4QUrl@Base 6.0.0
 _ZN3KIO20ForwardingWorkerBase7symlinkERK7QStringRK4QUrl6QFlagsINS_7JobFlagEE@Base 6.0.0
 _ZN3KIO20ForwardingWorkerBase8mimetypeERK4QUrl@Base 6.0.0
 _ZN3KIO20ForwardingWorkerBaseC1ERK10QByteArrayS3_S3_@Base 6.0.0
 _ZN3KIO20ForwardingWorkerBaseC2ERK10QByteArrayS3_S3_@Base 6.0.0
 _ZN3KIO20ForwardingWorkerBaseD0Ev@Base 6.0.0
 _ZN3KIO20ForwardingWorkerBaseD1Ev@Base 6.0.0
 _ZN3KIO20ForwardingWorkerBaseD2Ev@Base 6.0.0
 _ZN3KIO20JobUiDelegateFactoryC1Ev@Base 6.0.0
 _ZN3KIO20JobUiDelegateFactoryC2Ev@Base 6.0.0
 _ZN3KIO20JobUiDelegateFactoryD0Ev@Base 6.0.0
 _ZN3KIO20JobUiDelegateFactoryD1Ev@Base 6.0.0
 _ZN3KIO20JobUiDelegateFactoryD2Ev@Base 6.0.0
 _ZN3KIO21getCacheControlStringENS_12CacheControlE@Base 6.0.0
 _ZN3KIO22AskUserActionInterface11qt_metacallEN11QMetaObject4CallEiPPv@Base 6.0.0
 _ZN3KIO22AskUserActionInterface11qt_metacastEPKc@Base 6.0.0
 _ZN3KIO22AskUserActionInterface16messageBoxResultEi@Base 6.0.0
 _ZN3KIO22AskUserActionInterface16staticMetaObjectE@Base 6.0.0
 _ZN3KIO22AskUserActionInterface17askUserSkipResultENS_19RenameDialog_ResultEP4KJob@Base 6.0.0
 _ZN3KIO22AskUserActionInterface19askUserDeleteResultEbRK5QListI4QUrlENS0_12DeletionTypeEP7QWidget@Base 6.0.0
 _ZN3KIO22AskUserActionInterface19askUserRenameResultENS_19RenameDialog_ResultERK4QUrlP4KJob@Base 6.0.0
 _ZN3KIO22AskUserActionInterface24askIgnoreSslErrorsResultEi@Base 6.0.0
 _ZN3KIO22AskUserActionInterfaceC1EP7QObject@Base 6.0.0
 _ZN3KIO22AskUserActionInterfaceC2EP7QObject@Base 6.0.0
 _ZN3KIO22AskUserActionInterfaceD0Ev@Base 6.0.0
 _ZN3KIO22AskUserActionInterfaceD1Ev@Base 6.0.0
 _ZN3KIO22AskUserActionInterfaceD2Ev@Base 6.0.0
 _ZN3KIO22FileSystemFreeSpaceJob11qt_metacallEN11QMetaObject4CallEiPPv@Base 6.0.0
 _ZN3KIO22FileSystemFreeSpaceJob11qt_metacastEPKc@Base 6.0.0
 _ZN3KIO22FileSystemFreeSpaceJob12slotFinishedEv@Base 6.0.0
 _ZN3KIO22FileSystemFreeSpaceJob16staticMetaObjectE@Base 6.0.0
 _ZN3KIO22FileSystemFreeSpaceJobD0Ev@Base 6.0.0
 _ZN3KIO22FileSystemFreeSpaceJobD1Ev@Base 6.0.0
 _ZN3KIO22FileSystemFreeSpaceJobD2Ev@Base 6.0.0
 _ZN3KIO22JobUiDelegateExtension20updateUrlInClipboardERK4QUrlS3_@Base 6.0.0
 _ZN3KIO22JobUiDelegateExtension22createClipboardUpdaterEPNS_3JobENS0_20ClipboardUpdaterModeE@Base 6.0.0
 _ZN3KIO22JobUiDelegateExtensionC1Ev@Base 6.0.0
 _ZN3KIO22JobUiDelegateExtensionC2Ev@Base 6.0.0
 _ZN3KIO22JobUiDelegateExtensionD0Ev@Base 6.0.0
 _ZN3KIO22JobUiDelegateExtensionD1Ev@Base 6.0.0
 _ZN3KIO22JobUiDelegateExtensionD2Ev@Base 6.0.0
 _ZN3KIO25calculateRemainingSecondsEyyy@Base 6.0.0
 _ZN3KIO26createDefaultJobUiDelegateE6QFlagsIN14KJobUiDelegate4FlagEEP7QWidget@Base 6.0.0
 _ZN3KIO26createDefaultJobUiDelegateEv@Base 6.0.0
 _ZN3KIO27defaultJobUiDelegateFactoryEv@Base 6.0.0
 _ZN3KIO28unsupportedActionErrorStringERK7QStringi@Base 6.0.0
 _ZN3KIO29defaultJobUiDelegateExtensionEv@Base 6.0.0
 _ZN3KIO30setDefaultJobUiDelegateFactoryEPNS_20JobUiDelegateFactoryE@Base 6.0.0
 _ZN3KIO32UntrustedProgramHandlerInterface11qt_metacallEN11QMetaObject4CallEiPPv@Base 6.0.0
 _ZN3KIO32UntrustedProgramHandlerInterface11qt_metacastEPKc@Base 6.0.0
 _ZN3KIO32UntrustedProgramHandlerInterface13setExecuteBitERK7QStringRS1_@Base 6.0.0
 _ZN3KIO32UntrustedProgramHandlerInterface16staticMetaObjectE@Base 6.0.0
 _ZN3KIO32UntrustedProgramHandlerInterface25makeServiceFileExecutableERK7QStringRS1_@Base 6.0.0
 _ZN3KIO32UntrustedProgramHandlerInterface27showUntrustedProgramWarningEP4KJobRK7QString@Base 6.0.0
 _ZN3KIO32UntrustedProgramHandlerInterface6resultEb@Base 6.0.0
 _ZN3KIO32UntrustedProgramHandlerInterfaceC1EP7QObject@Base 6.0.0
 _ZN3KIO32UntrustedProgramHandlerInterfaceC2EP7QObject@Base 6.0.0
 _ZN3KIO32UntrustedProgramHandlerInterfaceD0Ev@Base 6.0.0
 _ZN3KIO32UntrustedProgramHandlerInterfaceD1Ev@Base 6.0.0
 _ZN3KIO32UntrustedProgramHandlerInterfaceD2Ev@Base 6.0.0
 _ZN3KIO32setDefaultJobUiDelegateExtensionEPNS_22JobUiDelegateExtensionE@Base 6.0.0
 _ZN3KIO3Job11addMetaDataERK4QMapI7QStringS2_E@Base 6.0.0
 _ZN3KIO3Job11addMetaDataERK7QStringS3_@Base 6.0.0
 _ZN3KIO3Job11qt_metacallEN11QMetaObject4CallEiPPv@Base 6.0.0
 _ZN3KIO3Job11qt_metacastEPKc@Base 6.0.0
 _ZN3KIO3Job11setMetaDataERKNS_8MetaDataE@Base 6.0.0
 _ZN3KIO3Job12removeSubjobEP4KJob@Base 6.0.0
 _ZN3KIO3Job12setParentJobEPS0_@Base 6.0.0
 _ZN3KIO3Job13mergeMetaDataERK4QMapI7QStringS2_E@Base 6.0.0
 _ZN3KIO3Job13queryMetaDataERK7QString@Base 6.0.0
 _ZN3KIO3Job16staticMetaObjectE@Base 6.0.0
 _ZN3KIO3Job22setUiDelegateExtensionEPNS_22JobUiDelegateExtensionE@Base 6.0.0
 _ZN3KIO3Job6doKillEv@Base 6.0.0
 _ZN3KIO3Job8doResumeEv@Base 6.0.0
 _ZN3KIO3Job9addSubjobEP4KJob@Base 6.0.0
 _ZN3KIO3Job9connectedEPS0_@Base 6.0.0
 _ZN3KIO3Job9doSuspendEv@Base 6.0.0
 _ZN3KIO3JobC1ERNS_10JobPrivateE@Base 6.0.0
 _ZN3KIO3JobC1Ev@Base 6.0.0
 _ZN3KIO3JobC2ERNS_10JobPrivateE@Base 6.0.0
 _ZN3KIO3JobC2Ev@Base 6.0.0
 _ZN3KIO3JobD0Ev@Base 6.0.0
 _ZN3KIO3JobD1Ev@Base 6.0.0
 _ZN3KIO3JobD2Ev@Base 6.0.0
 _ZN3KIO3delERK4QUrl6QFlagsINS_7JobFlagEE@Base 6.0.0
 _ZN3KIO3delERK5QListI4QUrlE6QFlagsINS_7JobFlagEE@Base 6.0.0
 _ZN3KIO3getERK4QUrlNS_8LoadTypeE6QFlagsINS_7JobFlagEE@Base 6.0.0
 _ZN3KIO3putERK4QUrli6QFlagsINS_7JobFlagEE@Base 6.0.0
 _ZN3KIO4copyERK4QUrlS2_6QFlagsINS_7JobFlagEE@Base 6.0.0
 _ZN3KIO4copyERK5QListI4QUrlERKS1_6QFlagsINS_7JobFlagEE@Base 6.0.0
 _ZN3KIO4linkERK4QUrlS2_6QFlagsINS_7JobFlagEE@Base 6.0.0
 _ZN3KIO4linkERK5QListI4QUrlERKS1_6QFlagsINS_7JobFlagEE@Base 6.0.0
 _ZN3KIO4moveERK4QUrlS2_6QFlagsINS_7JobFlagEE@Base 6.0.0
 _ZN3KIO4moveERK5QListI4QUrlERKS1_6QFlagsINS_7JobFlagEE@Base 6.0.0
 _ZN3KIO4openERK4QUrl6QFlagsIN13QIODeviceBase12OpenModeFlagEE@Base 6.0.0
 _ZN3KIO4statERK4QUrl6QFlagsINS_7JobFlagEE@Base 6.0.0
 _ZN3KIO4statERK4QUrlNS_7StatJob8StatSideE6QFlagsINS_10StatDetailEES5_INS_7JobFlagEE@Base 6.0.0
 _ZN3KIO5chmodERK13KFileItemListiiRK7QStringS5_b6QFlagsINS_7JobFlagEE@Base 6.0.0
 _ZN3KIO5chmodERK4QUrli@Base 6.0.0
 _ZN3KIO5chownERK4QUrlRK7QStringS5_@Base 6.0.0
 _ZN3KIO5mkdirERK4QUrli@Base 6.0.0
 _ZN3KIO5mountEbRK10QByteArrayRK7QStringS5_6QFlagsINS_7JobFlagEE@Base 6.0.0
 _ZN3KIO5rmdirERK4QUrl@Base 6.0.0
 _ZN3KIO5trashERK4QUrl6QFlagsINS_7JobFlagEE@Base 6.0.0
 _ZN3KIO5trashERK5QListI4QUrlE6QFlagsINS_7JobFlagEE@Base 6.0.0
 _ZN3KIO5upUrlERK4QUrl@Base 6.0.0
 _ZN3KIO6DavJob11qt_metacallEN11QMetaObject4CallEiPPv@Base 6.0.0
 _ZN3KIO6DavJob11qt_metacastEPKc@Base 6.0.0
 _ZN3KIO6DavJob12slotFinishedEv@Base 6.0.0
 _ZN3KIO6DavJob16staticMetaObjectE@Base 6.0.0
 _ZN3KIO6DavJob8slotDataERK10QByteArray@Base 6.0.0
 _ZN3KIO6copyAsERK4QUrlS2_6QFlagsINS_7JobFlagEE@Base 6.0.0
 _ZN3KIO6linkAsERK4QUrlS2_6QFlagsINS_7JobFlagEE@Base 6.0.0
 _ZN3KIO6mkpathERK4QUrlS2_6QFlagsINS_7JobFlagEE@Base 6.0.0
 _ZN3KIO6moveAsERK4QUrlS2_6QFlagsINS_7JobFlagEE@Base 6.0.0
 _ZN3KIO6numberEy@Base 6.0.0
 _ZN3KIO6renameERK4QUrlS2_6QFlagsINS_7JobFlagEE@Base 6.0.0
 _ZN3KIO7CopyJob10emitResultEv@Base 6.0.0
 _ZN3KIO7CopyJob10slotResultEP4KJob@Base 6.0.0
 _ZN3KIO7CopyJob11copyingDoneEPNS_3JobERK4QUrlS5_RK9QDateTimebb@Base 6.0.0
 _ZN3KIO7CopyJob11creatingDirEPNS_3JobERK4QUrl@Base 6.0.0
 _ZN3KIO7CopyJob11qt_metacallEN11QMetaObject4CallEiPPv@Base 6.0.0
 _ZN3KIO7CopyJob11qt_metacastEPKc@Base 6.0.0
 _ZN3KIO7CopyJob11setAutoSkipEb@Base 6.0.0
 _ZN3KIO7CopyJob13processedDirsEPNS_3JobEm@Base 6.0.0
 _ZN3KIO7CopyJob13setAutoRenameEb@Base 6.0.0
 _ZN3KIO7CopyJob14processedFilesEPNS_3JobEm@Base 6.0.0
 _ZN3KIO7CopyJob15copyingLinkDoneEPNS_3JobERK4QUrlRK7QStringS5_@Base 6.0.0
 _ZN3KIO7CopyJob16staticMetaObjectE@Base 6.0.0
 _ZN3KIO7CopyJob21setDefaultPermissionsEb@Base 6.0.0
 _ZN3KIO7CopyJob31setWriteIntoExistingDirectoriesEb@Base 6.0.0
 _ZN3KIO7CopyJob6movingEPNS_3JobERK4QUrlS5_@Base 6.0.0
 _ZN3KIO7CopyJob7copyingEPNS_3JobERK4QUrlS5_@Base 6.0.0
 _ZN3KIO7CopyJob7linkingEPNS_3JobERK7QStringRK4QUrl@Base 6.0.0
 _ZN3KIO7CopyJob7renamedEPNS_3JobERK4QUrlS5_@Base 6.0.0
 _ZN3KIO7CopyJob8doResumeEv@Base 6.0.0
 _ZN3KIO7CopyJob9doSuspendEv@Base 6.0.0
 _ZN3KIO7CopyJobD0Ev@Base 6.0.0
 _ZN3KIO7CopyJobD1Ev@Base 6.0.0
 _ZN3KIO7CopyJobD2Ev@Base 6.0.0
 _ZN3KIO7FileJob10fileClosedEPNS_3JobE@Base 6.0.0
 _ZN3KIO7FileJob11qt_metacallEN11QMetaObject4CallEiPPv@Base 6.0.0
 _ZN3KIO7FileJob11qt_metacastEPKc@Base 6.0.0
 _ZN3KIO7FileJob11redirectionEPNS_3JobERK4QUrl@Base 6.0.0
 _ZN3KIO7FileJob13mimeTypeFoundEPNS_3JobERK7QString@Base 6.0.0
 _ZN3KIO7FileJob16staticMetaObjectE@Base 6.0.0
 _ZN3KIO7FileJob4dataEPNS_3JobERK10QByteArray@Base 6.0.0
 _ZN3KIO7FileJob4openEPNS_3JobE@Base 6.0.0
 _ZN3KIO7FileJob4readEy@Base 6.0.0
 _ZN3KIO7FileJob4seekEy@Base 6.0.0
 _ZN3KIO7FileJob4sizeEv@Base 6.0.0
 _ZN3KIO7FileJob5closeEv@Base 6.0.0
 _ZN3KIO7FileJob5writeERK10QByteArray@Base 6.0.0
 _ZN3KIO7FileJob7writtenEPNS_3JobEy@Base 6.0.0
 _ZN3KIO7FileJob8positionEPNS_3JobEy@Base 6.0.0
 _ZN3KIO7FileJob8truncateEy@Base 6.0.0
 _ZN3KIO7FileJob9truncatedEPNS_3JobEy@Base 6.0.0
 _ZN3KIO7FileJobD0Ev@Base 6.0.0
 _ZN3KIO7FileJobD1Ev@Base 6.0.0
 _ZN3KIO7FileJobD2Ev@Base 6.0.0
 _ZN3KIO7ListJob10slotResultEP4KJob@Base 6.0.0
 _ZN3KIO7ListJob11qt_metacallEN11QMetaObject4CallEiPPv@Base 6.0.0
 _ZN3KIO7ListJob11qt_metacastEPKc@Base 6.0.0
 _ZN3KIO7ListJob11redirectionEPNS_3JobERK4QUrl@Base 6.0.0
 _ZN3KIO7ListJob12slotFinishedEv@Base 6.0.0
 _ZN3KIO7ListJob15setUnrestrictedEb@Base 6.0.0
 _ZN3KIO7ListJob16staticMetaObjectE@Base 6.0.0
 _ZN3KIO7ListJob20permanentRedirectionEPNS_3JobERK4QUrlS5_@Base 6.0.0
 _ZN3KIO7ListJob7entriesEPNS_3JobERK5QListINS_8UDSEntryEE@Base 6.0.0
 _ZN3KIO7ListJob8subErrorEPS0_S1_@Base 6.0.0
 _ZN3KIO7ListJobD0Ev@Base 6.0.0
 _ZN3KIO7ListJobD1Ev@Base 6.0.0
 _ZN3KIO7ListJobD2Ev@Base 6.0.0
 _ZN3KIO7StatJob10setDetailsE6QFlagsINS_10StatDetailEE@Base 6.0.0
 _ZN3KIO7StatJob11qt_metacallEN11QMetaObject4CallEiPPv@Base 6.0.0
 _ZN3KIO7StatJob11qt_metacastEPKc@Base 6.0.0
 _ZN3KIO7StatJob11redirectionEPNS_3JobERK4QUrl@Base 6.0.0
 _ZN3KIO7StatJob12slotFinishedEv@Base 6.0.0
 _ZN3KIO7StatJob16staticMetaObjectE@Base 6.0.0
 _ZN3KIO7StatJob20permanentRedirectionEPNS_3JobERK4QUrlS5_@Base 6.0.0
 _ZN3KIO7StatJob7setSideENS0_8StatSideE@Base 6.0.0
 _ZN3KIO7StatJobD0Ev@Base 6.0.0
 _ZN3KIO7StatJobD1Ev@Base 6.0.0
 _ZN3KIO7StatJobD2Ev@Base 6.0.0
 _ZN3KIO7listDirERK4QUrl6QFlagsINS_7JobFlagEES3_INS_7ListJob8ListFlagEE@Base 6.0.0
 _ZN3KIO7specialERK4QUrlRK10QByteArray6QFlagsINS_7JobFlagEE@Base 6.0.0
 _ZN3KIO7symlinkERK7QStringRK4QUrl6QFlagsINS_7JobFlagEE@Base 6.0.0
 _ZN3KIO7unmountERK7QString6QFlagsINS_7JobFlagEE@Base 6.0.0
 _ZN3KIO8AuthInfo11setModifiedEb@Base 6.0.0
 _ZN3KIO8AuthInfo13setExtraFieldERK7QStringRK8QVariant@Base 6.0.0
 _ZN3KIO8AuthInfo17registerMetaTypesEv@Base 6.0.0
 _ZN3KIO8AuthInfo18setExtraFieldFlagsERK7QStringNS0_10FieldFlagsE@Base 6.0.0
 _ZN3KIO8AuthInfoC1ERKS0_@Base 6.0.0
 _ZN3KIO8AuthInfoC1Ev@Base 6.0.0
 _ZN3KIO8AuthInfoC2ERKS0_@Base 6.0.0
 _ZN3KIO8AuthInfoC2Ev@Base 6.0.0
 _ZN3KIO8AuthInfoD1Ev@Base 6.0.0
 _ZN3KIO8AuthInfoD2Ev@Base 6.0.0
 _ZN3KIO8AuthInfoaSERKS0_@Base 6.0.0
 _ZN3KIO8ChmodJob10slotResultEP4KJob@Base 6.0.0
 _ZN3KIO8ChmodJob11qt_metacallEN11QMetaObject4CallEiPPv@Base 6.0.0
 _ZN3KIO8ChmodJob11qt_metacastEPKc@Base 6.0.0
 _ZN3KIO8ChmodJob16staticMetaObjectE@Base 6.0.0
 _ZN3KIO8ChmodJobD0Ev@Base 6.0.0
 _ZN3KIO8ChmodJobD1Ev@Base 6.0.0
 _ZN3KIO8ChmodJobD2Ev@Base 6.0.0
 _ZN3KIO8HostInfo10lookupHostERK7QStringm@Base 6.0.0
 _ZN3KIO8HostInfo11cacheLookupERK9QHostInfo@Base 6.0.0
 _ZN3KIO8HostInfo23lookupCachedHostInfoForERK7QString@Base 6.0.0
 _ZN3KIO8MkdirJob11qt_metacallEN11QMetaObject4CallEiPPv@Base 6.0.0
 _ZN3KIO8MkdirJob11qt_metacastEPKc@Base 6.0.0
 _ZN3KIO8MkdirJob11redirectionEPNS_3JobERK4QUrl@Base 6.0.0
 _ZN3KIO8MkdirJob12slotFinishedEv@Base 6.0.0
 _ZN3KIO8MkdirJob16staticMetaObjectE@Base 6.0.0
 _ZN3KIO8MkdirJob20permanentRedirectionEPNS_3JobERK4QUrlS5_@Base 6.0.0
 _ZN3KIO8MkdirJobD0Ev@Base 6.0.0
 _ZN3KIO8MkdirJobD1Ev@Base 6.0.0
 _ZN3KIO8MkdirJobD2Ev@Base 6.0.0
 _ZN3KIO8OpenWith6acceptER28QExplicitlySharedDataPointerI8KServiceERK7QStringbS7_bbb@Base 6.3.0
 _ZN3KIO8UDSEntry10fastInsertEjRK7QString@Base 6.0.0
 _ZN3KIO8UDSEntry10fastInsertEjx@Base 6.0.0
 _ZN3KIO8UDSEntry5clearEv@Base 6.0.0
 _ZN3KIO8UDSEntry7replaceEjRK7QString@Base 6.0.0
 _ZN3KIO8UDSEntry7replaceEjx@Base 6.0.0
 _ZN3KIO8UDSEntry7reserveEi@Base 6.0.0
 _ZN3KIO8UDSEntryC1EOS0_@Base 6.0.0
 _ZN3KIO8UDSEntryC1ERK6stat64RK7QString@Base 6.0.0
 _ZN3KIO8UDSEntryC1ERKS0_@Base 6.0.0
 _ZN3KIO8UDSEntryC1Ev@Base 6.0.0
 _ZN3KIO8UDSEntryC2EOS0_@Base 6.0.0
 _ZN3KIO8UDSEntryC2ERK6stat64RK7QString@Base 6.0.0
 _ZN3KIO8UDSEntryC2ERKS0_@Base 6.0.0
 _ZN3KIO8UDSEntryC2Ev@Base 6.0.0
 _ZN3KIO8UDSEntryD1Ev@Base 6.0.0
 _ZN3KIO8UDSEntryD2Ev@Base 6.0.0
 _ZN3KIO8UDSEntryaSEOS0_@Base 6.0.0
 _ZN3KIO8UDSEntryaSERKS0_@Base 6.0.0
 _ZN3KIO8mimetypeERK4QUrl6QFlagsINS_7JobFlagEE@Base 6.0.0
 _ZN3KIO9DeleteJob10slotResultEP4KJob@Base 6.0.0
 _ZN3KIO9DeleteJob10totalFilesEP4KJobm@Base 6.0.0
 _ZN3KIO9DeleteJob11qt_metacallEN11QMetaObject4CallEiPPv@Base 6.0.0
 _ZN3KIO9DeleteJob11qt_metacastEPKc@Base 6.0.0
 _ZN3KIO9DeleteJob13processedDirsEPNS_3JobEm@Base 6.0.0
 _ZN3KIO9DeleteJob14processedFilesEPNS_3JobEm@Base 6.0.0
 _ZN3KIO9DeleteJob16staticMetaObjectE@Base 6.0.0
 _ZN3KIO9DeleteJob8deletingEPNS_3JobERK4QUrl@Base 6.0.0
 _ZN3KIO9DeleteJob9totalDirsEP4KJobm@Base 6.0.0
 _ZN3KIO9DeleteJobD0Ev@Base 6.0.0
 _ZN3KIO9DeleteJobD1Ev@Base 6.0.0
 _ZN3KIO9DeleteJobD2Ev@Base 6.0.0
 _ZN3KIO9MkpathJob10slotResultEP4KJob@Base 6.0.0
 _ZN3KIO9MkpathJob11qt_metacallEN11QMetaObject4CallEiPPv@Base 6.0.0
 _ZN3KIO9MkpathJob11qt_metacastEPKc@Base 6.0.0
 _ZN3KIO9MkpathJob16directoryCreatedERK4QUrl@Base 6.0.0
 _ZN3KIO9MkpathJob16staticMetaObjectE@Base 6.0.0
 _ZN3KIO9MkpathJobD0Ev@Base 6.0.0
 _ZN3KIO9MkpathJobD1Ev@Base 6.0.0
 _ZN3KIO9MkpathJobD2Ev@Base 6.0.0
 _ZN3KIO9SimpleJob11qt_metacallEN11QMetaObject4CallEiPPv@Base 6.0.0
 _ZN3KIO9SimpleJob11qt_metacastEPKc@Base 6.0.0
 _ZN3KIO9SimpleJob11slotWarningERK7QString@Base 6.0.0
 _ZN3KIO9SimpleJob12removeOnHoldEv@Base 6.0.0
 _ZN3KIO9SimpleJob12slotFinishedEv@Base 6.0.0
 _ZN3KIO9SimpleJob12slotMetaDataERKNS_8MetaDataE@Base 6.0.0
 _ZN3KIO9SimpleJob16staticMetaObjectE@Base 6.0.0
 _ZN3KIO9SimpleJob29setRedirectionHandlingEnabledEb@Base 6.0.0
 _ZN3KIO9SimpleJob6doKillEv@Base 6.0.0
 _ZN3KIO9SimpleJob8doResumeEv@Base 6.0.0
 _ZN3KIO9SimpleJob9doSuspendEv@Base 6.0.0
 _ZN3KIO9SimpleJob9putOnHoldEv@Base 6.0.0
 _ZN3KIO9SimpleJob9slotErrorEiRK7QString@Base 6.0.0
 _ZN3KIO9SimpleJobD0Ev@Base 6.0.0
 _ZN3KIO9SimpleJobD1Ev@Base 6.0.0
 _ZN3KIO9SimpleJobD2Ev@Base 6.0.0
 _ZN3KIO9davReportERK4QUrlRK7QStringS5_6QFlagsINS_7JobFlagEE@Base 6.0.0
 _ZN3KIO9davSearchERK4QUrlRK7QStringS5_S5_6QFlagsINS_7JobFlagEE@Base 6.0.0
 _ZN3KIO9file_copyERK4QUrlS2_i6QFlagsINS_7JobFlagEE@Base 6.0.0
 _ZN3KIO9file_moveERK4QUrlS2_i6QFlagsINS_7JobFlagEE@Base 6.0.0
 _ZN3KIO9http_postERK4QUrlP9QIODevicex6QFlagsINS_7JobFlagEE@Base 6.0.0
 _ZN3KIO9http_postERK4QUrlRK10QByteArray6QFlagsINS_7JobFlagEE@Base 6.0.0
 _ZN3KIO9storedGetERK4QUrlNS_8LoadTypeE6QFlagsINS_7JobFlagEE@Base 6.0.0
 _ZN3KIO9storedPutEP9QIODeviceRK4QUrli6QFlagsINS_7JobFlagEE@Base 6.0.0
 _ZN3KIO9storedPutERK10QByteArrayRK4QUrli6QFlagsINS_7JobFlagEE@Base 6.0.0
 _ZN3KIOeqERKNS_8UDSEntryES2_@Base 6.8.0
 _ZN3KIOlsER11QDataStreamRKNS_8AuthInfoE@Base 6.0.0
 _ZN3KIOlsER13QDBusArgumentRKNS_8AuthInfoE@Base 6.0.0
 _ZN3KIOneERKNS_8UDSEntryES2_@Base 6.8.0
 _ZN3KIOrsER11QDataStreamRNS_8AuthInfoE@Base 6.0.0
 _ZN3KIOrsERK13QDBusArgumentRNS_8AuthInfoE@Base 6.0.0
 _ZN4KACL12virtual_hookEiPv@Base 6.0.0
 _ZN4KACL18setMaskPermissionsEt@Base 6.0.0
 _ZN4KACL19setOwnerPermissionsEt@Base 6.0.0
 _ZN4KACL20setOthersPermissionsEt@Base 6.0.0
 _ZN4KACL21setAllUserPermissionsERK5QListISt4pairI7QStringtEE@Base 6.0.0
 _ZN4KACL22setAllGroupPermissionsERK5QListISt4pairI7QStringtEE@Base 6.0.0
 _ZN4KACL23setNamedUserPermissionsERK7QStringt@Base 6.0.0
 _ZN4KACL24setNamedGroupPermissionsERK7QStringt@Base 6.0.0
 _ZN4KACL25setOwningGroupPermissionsEt@Base 6.0.0
 _ZN4KACL6setACLERK7QString@Base 6.0.0
 _ZN4KACLC1ERK7QString@Base 6.0.0
 _ZN4KACLC1ERKS_@Base 6.0.0
 _ZN4KACLC1Ej@Base 6.0.0
 _ZN4KACLC1Ev@Base 6.0.0
 _ZN4KACLC2ERK7QString@Base 6.0.0
 _ZN4KACLC2ERKS_@Base 6.0.0
 _ZN4KACLC2Ej@Base 6.0.0
 _ZN4KACLC2Ev@Base 6.0.0
 _ZN4KACLD0Ev@Base 6.0.0
 _ZN4KACLD1Ev@Base 6.0.0
 _ZN4KACLD2Ev@Base 6.0.0
 _ZN4KACLaSERKS_@Base 6.0.0
 _ZN9KFileItem12setLocalPathERK7QString@Base 6.0.0
 _ZN9KFileItem15refreshMimeTypeEv@Base 6.0.0
 _ZN9KFileItem16staticMetaObjectE@Base 6.0.0
 _ZN9KFileItem19setDelayedMimeTypesEb@Base 6.0.0
 _ZN9KFileItem6setUrlERK4QUrl@Base 6.0.0
 _ZN9KFileItem7refreshEv@Base 6.0.0
 _ZN9KFileItem7setNameERK7QString@Base 6.0.0
 _ZN9KFileItemC1EOS_@Base 6.0.0
 _ZN9KFileItemC1ERK4QUrlNS_21MimeTypeDeterminationE@Base 6.0.0
 _ZN9KFileItemC1ERK4QUrlRK7QStringj@Base 6.0.0
 _ZN9KFileItemC1ERKN3KIO8UDSEntryERK4QUrlbb@Base 6.0.0
 _ZN9KFileItemC1ERKS_@Base 6.0.0
 _ZN9KFileItemC1Ev@Base 6.0.0
 _ZN9KFileItemC2EOS_@Base 6.0.0
 _ZN9KFileItemC2ERK4QUrlNS_21MimeTypeDeterminationE@Base 6.0.0
 _ZN9KFileItemC2ERK4QUrlRK7QStringj@Base 6.0.0
 _ZN9KFileItemC2ERKN3KIO8UDSEntryERK4QUrlbb@Base 6.0.0
 _ZN9KFileItemC2ERKS_@Base 6.0.0
 _ZN9KFileItemC2Ev@Base 6.0.0
 _ZN9KFileItemD1Ev@Base 6.0.0
 _ZN9KFileItemD2Ev@Base 6.0.0
 _ZN9KFileItemaSEOS_@Base 6.0.0
 _ZN9KFileItemaSERKS_@Base 6.0.0
 _ZNK11KFileFilter12filePatternsEv@Base 6.0.0
 _ZNK11KFileFilter12mimePatternsEv@Base 6.0.0
 _ZNK11KFileFilter14toFilterStringEv@Base 6.0.0
 _ZNK11KFileFilter5labelEv@Base 6.0.0
 _ZNK11KFileFilter7isEmptyEv@Base 6.0.0
 _ZNK11KFileFilter7isValidEv@Base 6.0.0
 _ZNK11KFileFiltereqERKS_@Base 6.0.0
 _ZNK11KMountPoint10mountPointEv@Base 6.0.0
 _ZNK11KMountPoint11isOnNetworkEv@Base 6.0.0
 _ZNK11KMountPoint11mountedFromEv@Base 6.0.0
 _ZNK11KMountPoint12mountOptionsEv@Base 6.0.0
 _ZNK11KMountPoint12probablySlowEv@Base 6.0.0
 _ZNK11KMountPoint14realDeviceNameEv@Base 6.0.0
 _ZNK11KMountPoint18testFileSystemFlagENS_14FileSystemFlagE@Base 6.0.0
 _ZNK11KMountPoint4List10findByPathERK7QString@Base 6.0.0
 _ZNK11KMountPoint4List12findByDeviceERK7QString@Base 6.0.0
 _ZNK11KMountPoint8deviceIdEv@Base 6.0.0
 _ZNK11KMountPoint9mountTypeEv@Base 6.0.0
 _ZNK11KSambaShare10metaObjectEv@Base 6.0.0
 _ZNK11KSambaShare10shareNamesEv@Base 6.0.0
 _ZNK11KSambaShare14getShareByNameERK7QString@Base 6.0.0
 _ZNK11KSambaShare15getSharesByPathERK7QString@Base 6.0.0
 _ZNK11KSambaShare16areGuestsAllowedEv@Base 6.0.0
 _ZNK11KSambaShare17isDirectorySharedERK7QString@Base 6.0.0
 _ZNK11KSambaShare17sharedDirectoriesEv@Base 6.0.0
 _ZNK11KSambaShare20isShareNameAvailableERK7QString@Base 6.0.0
 _ZNK11KSambaShare21lastSystemErrorStringEv@Base 6.0.0
 _ZNK13KFileItemList10findByNameERK7QString@Base 6.0.0
 _ZNK13KFileItemList13targetUrlListEv@Base 6.0.0
 _ZNK13KFileItemList7urlListEv@Base 6.0.0
 _ZNK13KFileItemList9findByUrlERK4QUrl@Base 6.0.0
 _ZNK14KCoreDirLister10autoUpdateEv@Base 6.0.0
 _ZNK14KCoreDirLister10findByNameERK7QString@Base 6.0.0
 _ZNK14KCoreDirLister10isFinishedEv@Base 6.0.0
 _ZNK14KCoreDirLister10metaObjectEv@Base 6.0.0
 _ZNK14KCoreDirLister10nameFilterEv@Base 6.0.0
 _ZNK14KCoreDirLister11dirOnlyModeEv@Base 6.0.0
 _ZNK14KCoreDirLister11directoriesEv@Base 6.0.0
 _ZNK14KCoreDirLister11itemsForDirERK4QUrlNS_10WhichItemsE@Base 6.0.0
 _ZNK14KCoreDirLister11mimeFiltersEv@Base 6.0.0
 _ZNK14KCoreDirLister15showHiddenFilesEv@Base 6.0.0
 _ZNK14KCoreDirLister16delayedMimeTypesEv@Base 6.0.0
 _ZNK14KCoreDirLister24autoErrorHandlingEnabledEv@Base 6.0.0
 _ZNK14KCoreDirLister27requestMimeTypeWhileListingEv@Base 6.0.0
 _ZNK14KCoreDirLister3urlEv@Base 6.0.0
 _ZNK14KCoreDirLister5itemsENS_10WhichItemsE@Base 6.0.0
 _ZNK14KCoreDirLister8rootItemEv@Base 6.0.0
 _ZNK14KCoreDirLister9findByUrlERK4QUrl@Base 6.0.0
 _ZNK15KRemoteEncoding6decodeERK10QByteArray@Base 6.0.0
 _ZNK15KRemoteEncoding6encodeERK4QUrl@Base 6.0.0
 _ZNK15KRemoteEncoding6encodeERK7QString@Base 6.0.0
 _ZNK15KRemoteEncoding8encodingEv@Base 6.0.0
 _ZNK15KRemoteEncoding8fileNameERK4QUrl@Base 6.0.0
 _ZNK15KRemoteEncoding9directoryERK4QUrlb@Base 6.0.0
 _ZNK15KSambaShareData15guestPermissionEv@Base 6.0.0
 _ZNK15KSambaShareData3aclEv@Base 6.0.0
 _ZNK15KSambaShareData4nameEv@Base 6.0.0
 _ZNK15KSambaShareData4pathEv@Base 6.0.0
 _ZNK15KSambaShareData7commentEv@Base 6.0.0
 _ZNK15KSambaShareDataeqERKS_@Base 6.0.0
 _ZNK15KSambaShareDataneERKS_@Base 6.0.0
 _ZNK18KOverlayIconPlugin10metaObjectEv@Base 6.0.0
 _ZNK19KSslCertificateRule10isRejectedEv@Base 6.0.0
 _ZNK19KSslCertificateRule11certificateEv@Base 6.0.0
 _ZNK19KSslCertificateRule12filterErrorsERK5QListI9QSslErrorE@Base 6.0.0
 _ZNK19KSslCertificateRule13ignoredErrorsEv@Base 6.0.0
 _ZNK19KSslCertificateRule14expiryDateTimeEv@Base 6.0.0
 _ZNK19KSslCertificateRule14isErrorIgnoredEN9QSslError8SslErrorE@Base 6.0.0
 _ZNK19KSslCertificateRule8hostNameEv@Base 6.0.0
 _ZNK22KSslCertificateManager14caCertificatesEv@Base 6.0.0
 _ZNK22KSslCertificateManager4ruleERK15QSslCertificateRK7QString@Base 6.0.0
 _ZNK23KFileItemListProperties11isDirectoryEv@Base 6.0.0
 _ZNK23KFileItemListProperties14supportsMovingEv@Base 6.0.0
 _ZNK23KFileItemListProperties15supportsReadingEv@Base 6.0.0
 _ZNK23KFileItemListProperties15supportsWritingEv@Base 6.0.0
 _ZNK23KFileItemListProperties16supportsDeletingEv@Base 6.0.0
 _ZNK23KFileItemListProperties5itemsEv@Base 6.0.0
 _ZNK23KFileItemListProperties6isFileEv@Base 6.0.0
 _ZNK23KFileItemListProperties7isLocalEv@Base 6.0.0
 _ZNK23KFileItemListProperties7urlListEv@Base 6.0.0
 _ZNK23KFileItemListProperties8mimeTypeEv@Base 6.0.0
 _ZNK23KFileItemListProperties9mimeGroupEv@Base 6.0.0
 _ZNK25OrgKdeKDirNotifyInterface10metaObjectEv@Base 6.0.0
 _ZNK3KIO10RestoreJob10metaObjectEv@Base 6.0.0
 _ZNK3KIO10SpecialJob10metaObjectEv@Base 6.0.0
 _ZNK3KIO10SpecialJob9argumentsEv@Base 6.0.0
 _ZNK3KIO10WorkerBase11allMetaDataEv@Base 6.0.0
 _ZNK3KIO10WorkerBase11configValueERK7QStringS3_@Base 6.0.0
 _ZNK3KIO10WorkerBase11configValueERK7QStringb@Base 6.0.0
 _ZNK3KIO10WorkerBase11configValueERK7QStringi@Base 6.0.0
 _ZNK3KIO10WorkerBase11hasMetaDataERK7QString@Base 6.0.0
 _ZNK3KIO10WorkerBase8metaDataERK7QString@Base 6.0.0
 _ZNK3KIO10WorkerBase9mapConfigEv@Base 6.0.0
 _ZNK3KIO10WorkerBase9wasKilledEv@Base 6.0.0
 _ZNK3KIO11FileCopyJob10metaObjectEv@Base 6.0.0
 _ZNK3KIO11FileCopyJob6srcUrlEv@Base 6.0.0
 _ZNK3KIO11FileCopyJob7destUrlEv@Base 6.0.0
 _ZNK3KIO11MimetypeJob10metaObjectEv@Base 6.0.0
 _ZNK3KIO11TransferJob10metaObjectEv@Base 6.0.0
 _ZNK3KIO11TransferJob11isErrorPageEv@Base 6.0.0
 _ZNK3KIO11TransferJob11redirectUrlEv@Base 6.0.0
 _ZNK3KIO11TransferJob8mimetypeEv@Base 6.0.0
 _ZNK3KIO12WorkerResult11errorStringEv@Base 6.0.0
 _ZNK3KIO12WorkerResult5errorEv@Base 6.0.0
 _ZNK3KIO12WorkerResult7successEv@Base 6.0.0
 _ZNK3KIO13EmptyTrashJob10metaObjectEv@Base 6.0.0
 _ZNK3KIO13FavIconsCache10metaObjectEv@Base 6.0.0
 _ZNK3KIO13FavIconsCache16isFailedDownloadERK4QUrl@Base 6.0.0
 _ZNK3KIO13FavIconsCache19cachePathForIconUrlERK4QUrl@Base 6.0.0
 _ZNK3KIO13NameFinderJob10metaObjectEv@Base 6.0.0
 _ZNK3KIO13NameFinderJob7baseUrlEv@Base 6.0.0
 _ZNK3KIO13NameFinderJob8finalUrlEv@Base 6.0.0
 _ZNK3KIO13NameFinderJob9finalNameEv@Base 6.0.0
 _ZNK3KIO13WorkerFactory10metaObjectEv@Base 6.0.0
 _ZNK3KIO14BatchRenameJob10metaObjectEv@Base 6.0.0
 _ZNK3KIO16DirectorySizeJob10metaObjectEv@Base 6.0.0
 _ZNK3KIO16DirectorySizeJob10totalFilesEv@Base 6.0.0
 _ZNK3KIO16DirectorySizeJob12totalSubdirsEv@Base 6.0.0
 _ZNK3KIO16DirectorySizeJob9totalSizeEv@Base 6.0.0
 _ZNK3KIO17DesktopExecParser12errorMessageEv@Base 6.0.0
 _ZNK3KIO17DesktopExecParser18resultingArgumentsEv@Base 6.0.0
 _ZNK3KIO17MimeTypeFinderJob10metaObjectEv@Base 6.0.0
 _ZNK3KIO17MimeTypeFinderJob17suggestedFileNameEv@Base 6.0.0
 _ZNK3KIO17MimeTypeFinderJob29isAuthenticationPromptEnabledEv@Base 6.0.0
 _ZNK3KIO17MimeTypeFinderJob8mimeTypeEv@Base 6.0.0
 _ZNK3KIO17StoredTransferJob10metaObjectEv@Base 6.0.0
 _ZNK3KIO17StoredTransferJob4dataEv@Base 6.0.0
 _ZNK3KIO20ForwardingWorkerBase10metaObjectEv@Base 6.0.0
 _ZNK3KIO20ForwardingWorkerBase12processedUrlEv@Base 6.0.0
 _ZNK3KIO20ForwardingWorkerBase12requestedUrlEv@Base 6.0.0
 _ZNK3KIO20ForwardingWorkerBase14adjustUDSEntryERNS_8UDSEntryENS0_20UDSEntryCreationModeE@Base 6.0.0
 _ZNK3KIO22AskUserActionInterface10metaObjectEv@Base 6.0.0
 _ZNK3KIO22FileSystemFreeSpaceJob10metaObjectEv@Base 6.0.0
 _ZNK3KIO22FileSystemFreeSpaceJob13availableSizeEv@Base 6.0.0
 _ZNK3KIO22FileSystemFreeSpaceJob4sizeEv@Base 6.0.0
 _ZNK3KIO32UntrustedProgramHandlerInterface10metaObjectEv@Base 6.0.0
 _ZNK3KIO3Job10metaObjectEv@Base 6.0.0
 _ZNK3KIO3Job11errorStringEv@Base 6.0.0
 _ZNK3KIO3Job16outgoingMetaDataEv@Base 6.0.0
 _ZNK3KIO3Job19uiDelegateExtensionEv@Base 6.0.0
 _ZNK3KIO3Job20detailedErrorStringsEPK4QUrli@Base 6.0.0
 _ZNK3KIO3Job8metaDataEv@Base 6.0.0
 _ZNK3KIO3Job9parentJobEv@Base 6.0.0
 _ZNK3KIO6DavJob10metaObjectEv@Base 6.0.0
 _ZNK3KIO6DavJob12responseDataEv@Base 6.0.0
 _ZNK3KIO7CopyJob10metaObjectEv@Base 6.0.0
 _ZNK3KIO7CopyJob13operationModeEv@Base 6.0.0
 _ZNK3KIO7CopyJob7destUrlEv@Base 6.0.0
 _ZNK3KIO7CopyJob7srcUrlsEv@Base 6.0.0
 _ZNK3KIO7FileJob10metaObjectEv@Base 6.0.0
 _ZNK3KIO7ListJob10metaObjectEv@Base 6.0.0
 _ZNK3KIO7ListJob14redirectionUrlEv@Base 6.0.0
 _ZNK3KIO7StatJob10metaObjectEv@Base 6.0.0
 _ZNK3KIO7StatJob10statResultEv@Base 6.0.0
 _ZNK3KIO7StatJob12mostLocalUrlEv@Base 6.0.0
 _ZNK3KIO8AuthInfo10isModifiedEv@Base 6.0.0
 _ZNK3KIO8AuthInfo13getExtraFieldERK7QString@Base 6.0.0
 _ZNK3KIO8AuthInfo18getExtraFieldFlagsERK7QString@Base 6.0.0
 _ZNK3KIO8ChmodJob10metaObjectEv@Base 6.0.0
 _ZNK3KIO8MkdirJob10metaObjectEv@Base 6.0.0
 _ZNK3KIO8UDSEntry11numberValueEjx@Base 6.0.0
 _ZNK3KIO8UDSEntry11stringValueEj@Base 6.0.0
 _ZNK3KIO8UDSEntry5countEv@Base 6.0.0
 _ZNK3KIO8UDSEntry5isDirEv@Base 6.0.0
 _ZNK3KIO8UDSEntry6fieldsEv@Base 6.0.0
 _ZNK3KIO8UDSEntry6isLinkEv@Base 6.0.0
 _ZNK3KIO8UDSEntry8containsEj@Base 6.0.0
 _ZNK3KIO9DeleteJob10metaObjectEv@Base 6.0.0
 _ZNK3KIO9DeleteJob4urlsEv@Base 6.0.0
 _ZNK3KIO9MkpathJob10metaObjectEv@Base 6.0.0
 _ZNK3KIO9SimpleJob10metaObjectEv@Base 6.0.0
 _ZNK3KIO9SimpleJob28isRedirectionHandlingEnabledEv@Base 6.0.0
 _ZNK3KIO9SimpleJob3urlEv@Base 6.0.0
 _ZNK4KACL10isExtendedEv@Base 6.0.0
 _ZNK4KACL15basePermissionsEv@Base 6.0.0
 _ZNK4KACL15maskPermissionsERb@Base 6.0.0
 _ZNK4KACL16ownerPermissionsEv@Base 6.0.0
 _ZNK4KACL17othersPermissionsEv@Base 6.0.0
 _ZNK4KACL18allUserPermissionsEv@Base 6.0.0
 _ZNK4KACL19allGroupPermissionsEv@Base 6.0.0
 _ZNK4KACL20namedUserPermissionsERK7QStringPb@Base 6.0.0
 _ZNK4KACL21namedGroupPermissionsERK7QStringPb@Base 6.0.0
 _ZNK4KACL22owningGroupPermissionsEv@Base 6.0.0
 _ZNK4KACL7isValidEv@Base 6.0.0
 _ZNK4KACL8asStringEv@Base 6.0.0
 _ZNK4KACLeqERKS_@Base 6.0.0
 _ZNK4KACLneERKS_@Base 6.0.0
 _ZNK9KFileItem10defaultACLEv@Base 6.0.0
 _ZNK9KFileItem10isReadableEv@Base 6.0.0
 _ZNK9KFileItem10isWritableEv@Base 6.0.0
 _ZNK9KFileItem10timeStringENS_9FileTimesE@Base 6.0.0
 _ZNK9KFileItem11isLocalFileEv@Base 6.0.0
 _ZNK9KFileItem11mimeCommentEv@Base 6.0.0
 _ZNK9KFileItem11permissionsEv@Base 6.0.0
 _ZNK9KFileItem12isExecutableEv@Base 6.0.0
 _ZNK9KFileItem12mostLocalUrlEPb@Base 6.0.0
 _ZNK9KFileItem13isDesktopFileEv@Base 6.0.0
 _ZNK9KFileItem13isRegularFileEv@Base 6.0.0
 _ZNK9KFileItem13recursiveSizeEv@Base 6.0.0
 _ZNK9KFileItem14hasExtendedACLEv@Base 6.0.0
 _ZNK9KFileItem14isMostLocalUrlEv@Base 6.0.0
 _ZNK9KFileItem15currentMimeTypeEv@Base 6.0.0
 _ZNK9KFileItem15isMimeTypeKnownEv@Base 6.0.0
 _ZNK9KFileItem16getStatusBarInfoEv@Base 6.0.0
 _ZNK9KFileItem16isFinalIconKnownEv@Base 6.0.0
 _ZNK9KFileItem17determineMimeTypeEv@Base 6.0.0
 _ZNK9KFileItem17permissionsStringEv@Base 6.0.0
 _ZNK9KFileItem3ACLEv@Base 6.0.0
 _ZNK9KFileItem3cmpERKS_@Base 6.0.0
 _ZNK9KFileItem3urlEv@Base 6.0.0
 _ZNK9KFileItem4modeEv@Base 6.0.0
 _ZNK9KFileItem4nameEb@Base 6.0.0
 _ZNK9KFileItem4sizeEv@Base 6.0.0
 _ZNK9KFileItem4textEv@Base 6.0.0
 _ZNK9KFileItem4timeENS_9FileTimesE@Base 6.0.0
 _ZNK9KFileItem4userEv@Base 6.0.0
 _ZNK9KFileItem5entryEv@Base 6.0.0
 _ZNK9KFileItem5groupEv@Base 6.0.0
 _ZNK9KFileItem5isDirEv@Base 6.0.0
 _ZNK9KFileItem6existsEv@Base 6.0.0
 _ZNK9KFileItem6isFileEv@Base 6.0.0
 _ZNK9KFileItem6isLinkEv@Base 6.0.0
 _ZNK9KFileItem6isNullEv@Base 6.0.0
 _ZNK9KFileItem6isSlowEv@Base 6.0.0
 _ZNK9KFileItem6suffixEv@Base 6.0.0
 _ZNK9KFileItem6userIdEv@Base 6.0.0
 _ZNK9KFileItem7commentEv@Base 6.0.0
 _ZNK9KFileItem7groupIdEv@Base 6.0.0
 _ZNK9KFileItem8iconNameEv@Base 6.0.0
 _ZNK9KFileItem8isHiddenEv@Base 6.0.0
 _ZNK9KFileItem8linkDestEv@Base 6.0.0
 _ZNK9KFileItem8mimetypeEv@Base 6.0.0
 _ZNK9KFileItem8overlaysEv@Base 6.0.0
 _ZNK9KFileItem9localPathEv@Base 6.0.0
 _ZNK9KFileItem9targetUrlEv@Base 6.0.0
 _ZNK9KFileItemcv8QVariantEv@Base 6.0.0
 _ZNK9KFileItemeqERKS_@Base 6.0.0
 _ZNK9KFileItemltERK4QUrl@Base 6.0.0
 _ZNK9KFileItemltERKS_@Base 6.0.0
 _ZNK9KFileItemneERKS_@Base 6.0.0
 (optional=gccinternal|arch=!armel !armhf !hurd-i386 !i386 !mips64el !ppc64 !riscv64 !s390x)_ZNSt8__detail11__synth3wayE@Base 6.0.0
 _ZSt19piecewise_construct@Base 6.0.0
 _ZTI11KSambaShare@Base 6.0.0
 _ZTI14KCoreDirLister@Base 6.0.0
 _ZTI15KRemoteEncoding@Base 6.0.0
 _ZTI18KOverlayIconPlugin@Base 6.0.0
 _ZTI23KFileItemListProperties@Base 6.0.0
 _ZTI25OrgKdeKDirNotifyInterface@Base 6.0.0
 _ZTI4KACL@Base 6.0.0
 _ZTIN3KIO10JobPrivateE@Base 6.0.0
 _ZTIN3KIO10RestoreJobE@Base 6.0.0
 _ZTIN3KIO10SpecialJobE@Base 6.0.0
 _ZTIN3KIO10WorkerBaseE@Base 6.0.0
 _ZTIN3KIO11FileCopyJobE@Base 6.0.0
 _ZTIN3KIO11MimetypeJobE@Base 6.0.0
 _ZTIN3KIO11TransferJobE@Base 6.0.0
 _ZTIN3KIO13EmptyTrashJobE@Base 6.0.0
 _ZTIN3KIO13FavIconsCacheE@Base 6.0.0
 _ZTIN3KIO13NameFinderJobE@Base 6.0.0
 _ZTIN3KIO13WorkerFactoryE@Base 6.0.0
 _ZTIN3KIO14BatchRenameJobE@Base 6.0.0
 _ZTIN3KIO16DirectorySizeJobE@Base 6.0.0
 _ZTIN3KIO17MimeTypeFinderJobE@Base 6.0.0
 _ZTIN3KIO17StoredTransferJobE@Base 6.0.0
 _ZTIN3KIO20ForwardingWorkerBaseE@Base 6.0.0
 _ZTIN3KIO20JobUiDelegateFactoryE@Base 6.0.0
 _ZTIN3KIO22AskUserActionInterfaceE@Base 6.0.0
 _ZTIN3KIO22FileSystemFreeSpaceJobE@Base 6.0.0
 _ZTIN3KIO22JobUiDelegateExtensionE@Base 6.0.0
 _ZTIN3KIO32UntrustedProgramHandlerInterfaceE@Base 6.0.0
 _ZTIN3KIO3JobE@Base 6.0.0
 _ZTIN3KIO6DavJobE@Base 6.0.0
 _ZTIN3KIO7CopyJobE@Base 6.0.0
 _ZTIN3KIO7FileJobE@Base 6.0.0
 _ZTIN3KIO7ListJobE@Base 6.0.0
 _ZTIN3KIO7StatJobE@Base 6.0.0
 _ZTIN3KIO8ChmodJobE@Base 6.0.0
 _ZTIN3KIO8MkdirJobE@Base 6.0.0
 _ZTIN3KIO9DeleteJobE@Base 6.0.0
 _ZTIN3KIO9MkpathJobE@Base 6.0.0
 _ZTIN3KIO9SimpleJobE@Base 6.0.0
 (arch=armel riscv64)_ZTIN9__gnu_cxx7__mutexE@Base 6.0.0
 (arch=armel riscv64)_ZTISt11_Mutex_baseILN9__gnu_cxx12_Lock_policyE1EE@Base 6.0.0
 (arch=!armel !riscv64)_ZTISt11_Mutex_baseILN9__gnu_cxx12_Lock_policyE2EE@Base 6.0.0
 (arch=armel riscv64)_ZTISt16_Sp_counted_baseILN9__gnu_cxx12_Lock_policyE1EE@Base 6.0.0
 (arch=!armel !riscv64)_ZTISt16_Sp_counted_baseILN9__gnu_cxx12_Lock_policyE2EE@Base 6.0.0
 (arch=armel armhf)_ZTISt19_Sp_make_shared_tag@Base 6.0.0
 _ZTIZN9QMetaType17registerConverterI5QListI15QSslCertificateE9QIterableI13QMetaSequenceEN9QtPrivate33QSequentialIterableConvertFunctorIS3_EEEEbT1_EUlPKvPvE_@Base 6.0.0
 _ZTIZN9QMetaType17registerConverterI5QListI4QUrlE9QIterableI13QMetaSequenceEN9QtPrivate33QSequentialIterableConvertFunctorIS3_EEEEbT1_EUlPKvPvE_@Base 6.0.0
 _ZTIZN9QMetaType17registerConverterI5QListIN3KIO8UDSEntryEE9QIterableI13QMetaSequenceEN9QtPrivate33QSequentialIterableConvertFunctorIS4_EEEEbT1_EUlPKvPvE_@Base 6.0.0
 _ZTIZN9QMetaType17registerConverterI5QListIN9QSslError8SslErrorEE9QIterableI13QMetaSequenceEN9QtPrivate33QSequentialIterableConvertFunctorIS4_EEEEbT1_EUlPKvPvE_@Base 6.0.0
 _ZTIZN9QMetaType17registerConverterI5QListISt4pairI9KFileItemS3_EE9QIterableI13QMetaSequenceEN9QtPrivate33QSequentialIterableConvertFunctorIS5_EEEEbT1_EUlPKvPvE_@Base 6.0.0
 _ZTIZN9QMetaType17registerConverterISt4pairI9KFileItemS2_EN17QtMetaTypePrivate25QPairVariantInterfaceImplENS4_35QPairVariantInterfaceConvertFunctorIS3_EEEEbT1_EUlPKvPvE_@Base 6.0.0
 _ZTIZN9QMetaType19registerMutableViewI5QListI15QSslCertificateE9QIterableI13QMetaSequenceEN9QtPrivate37QSequentialIterableMutableViewFunctorIS3_EEEEbT1_EUlPvSB_E_@Base 6.0.0
 _ZTIZN9QMetaType19registerMutableViewI5QListI4QUrlE9QIterableI13QMetaSequenceEN9QtPrivate37QSequentialIterableMutableViewFunctorIS3_EEEEbT1_EUlPvSB_E_@Base 6.0.0
 _ZTIZN9QMetaType19registerMutableViewI5QListIN3KIO8UDSEntryEE9QIterableI13QMetaSequenceEN9QtPrivate37QSequentialIterableMutableViewFunctorIS4_EEEEbT1_EUlPvSC_E_@Base 6.0.0
 _ZTIZN9QMetaType19registerMutableViewI5QListIN9QSslError8SslErrorEE9QIterableI13QMetaSequenceEN9QtPrivate37QSequentialIterableMutableViewFunctorIS4_EEEEbT1_EUlPvSC_E_@Base 6.0.0
 _ZTIZN9QMetaType19registerMutableViewI5QListISt4pairI9KFileItemS3_EE9QIterableI13QMetaSequenceEN9QtPrivate37QSequentialIterableMutableViewFunctorIS5_EEEEbT1_EUlPvSD_E_@Base 6.0.0
 _ZTS11KSambaShare@Base 6.0.0
 _ZTS14KCoreDirLister@Base 6.0.0
 _ZTS15KRemoteEncoding@Base 6.0.0
 _ZTS18KOverlayIconPlugin@Base 6.0.0
 _ZTS23KFileItemListProperties@Base 6.0.0
 _ZTS25OrgKdeKDirNotifyInterface@Base 6.0.0
 _ZTS4KACL@Base 6.0.0
 _ZTSN3KIO10JobPrivateE@Base 6.0.0
 _ZTSN3KIO10RestoreJobE@Base 6.0.0
 _ZTSN3KIO10SpecialJobE@Base 6.0.0
 _ZTSN3KIO10WorkerBaseE@Base 6.0.0
 _ZTSN3KIO11FileCopyJobE@Base 6.0.0
 _ZTSN3KIO11MimetypeJobE@Base 6.0.0
 _ZTSN3KIO11TransferJobE@Base 6.0.0
 _ZTSN3KIO13EmptyTrashJobE@Base 6.0.0
 _ZTSN3KIO13FavIconsCacheE@Base 6.0.0
 _ZTSN3KIO13NameFinderJobE@Base 6.0.0
 _ZTSN3KIO13WorkerFactoryE@Base 6.0.0
 _ZTSN3KIO14BatchRenameJobE@Base 6.0.0
 _ZTSN3KIO16DirectorySizeJobE@Base 6.0.0
 _ZTSN3KIO17MimeTypeFinderJobE@Base 6.0.0
 _ZTSN3KIO17StoredTransferJobE@Base 6.0.0
 _ZTSN3KIO20ForwardingWorkerBaseE@Base 6.0.0
 _ZTSN3KIO20JobUiDelegateFactoryE@Base 6.0.0
 _ZTSN3KIO22AskUserActionInterfaceE@Base 6.0.0
 _ZTSN3KIO22FileSystemFreeSpaceJobE@Base 6.0.0
 _ZTSN3KIO22JobUiDelegateExtensionE@Base 6.0.0
 _ZTSN3KIO32UntrustedProgramHandlerInterfaceE@Base 6.0.0
 _ZTSN3KIO3JobE@Base 6.0.0
 _ZTSN3KIO6DavJobE@Base 6.0.0
 _ZTSN3KIO7CopyJobE@Base 6.0.0
 _ZTSN3KIO7FileJobE@Base 6.0.0
 _ZTSN3KIO7ListJobE@Base 6.0.0
 _ZTSN3KIO7StatJobE@Base 6.0.0
 _ZTSN3KIO8ChmodJobE@Base 6.0.0
 _ZTSN3KIO8MkdirJobE@Base 6.0.0
 _ZTSN3KIO9DeleteJobE@Base 6.0.0
 _ZTSN3KIO9MkpathJobE@Base 6.0.0
 _ZTSN3KIO9SimpleJobE@Base 6.0.0
 (arch=armel riscv64)_ZTSN9__gnu_cxx7__mutexE@Base 6.0.0
 (arch=armel riscv64)_ZTSSt11_Mutex_baseILN9__gnu_cxx12_Lock_policyE1EE@Base 6.0.0
 (arch=!armel !riscv64)_ZTSSt11_Mutex_baseILN9__gnu_cxx12_Lock_policyE2EE@Base 6.0.0
 (arch=armel riscv64)_ZTSSt16_Sp_counted_baseILN9__gnu_cxx12_Lock_policyE1EE@Base 6.0.0
 (arch=!armel !riscv64)_ZTSSt16_Sp_counted_baseILN9__gnu_cxx12_Lock_policyE2EE@Base 6.0.0
 _ZTSSt19_Sp_make_shared_tag@Base 6.0.0
 _ZTSZN9QMetaType17registerConverterI5QListI15QSslCertificateE9QIterableI13QMetaSequenceEN9QtPrivate33QSequentialIterableConvertFunctorIS3_EEEEbT1_EUlPKvPvE_@Base 6.0.0
 _ZTSZN9QMetaType17registerConverterI5QListI4QUrlE9QIterableI13QMetaSequenceEN9QtPrivate33QSequentialIterableConvertFunctorIS3_EEEEbT1_EUlPKvPvE_@Base 6.0.0
 _ZTSZN9QMetaType17registerConverterI5QListIN3KIO8UDSEntryEE9QIterableI13QMetaSequenceEN9QtPrivate33QSequentialIterableConvertFunctorIS4_EEEEbT1_EUlPKvPvE_@Base 6.0.0
 _ZTSZN9QMetaType17registerConverterI5QListIN9QSslError8SslErrorEE9QIterableI13QMetaSequenceEN9QtPrivate33QSequentialIterableConvertFunctorIS4_EEEEbT1_EUlPKvPvE_@Base 6.0.0
 _ZTSZN9QMetaType17registerConverterI5QListISt4pairI9KFileItemS3_EE9QIterableI13QMetaSequenceEN9QtPrivate33QSequentialIterableConvertFunctorIS5_EEEEbT1_EUlPKvPvE_@Base 6.0.0
 _ZTSZN9QMetaType17registerConverterISt4pairI9KFileItemS2_EN17QtMetaTypePrivate25QPairVariantInterfaceImplENS4_35QPairVariantInterfaceConvertFunctorIS3_EEEEbT1_EUlPKvPvE_@Base 6.0.0
 _ZTSZN9QMetaType19registerMutableViewI5QListI15QSslCertificateE9QIterableI13QMetaSequenceEN9QtPrivate37QSequentialIterableMutableViewFunctorIS3_EEEEbT1_EUlPvSB_E_@Base 6.0.0
 _ZTSZN9QMetaType19registerMutableViewI5QListI4QUrlE9QIterableI13QMetaSequenceEN9QtPrivate37QSequentialIterableMutableViewFunctorIS3_EEEEbT1_EUlPvSB_E_@Base 6.0.0
 _ZTSZN9QMetaType19registerMutableViewI5QListIN3KIO8UDSEntryEE9QIterableI13QMetaSequenceEN9QtPrivate37QSequentialIterableMutableViewFunctorIS4_EEEEbT1_EUlPvSC_E_@Base 6.0.0
 _ZTSZN9QMetaType19registerMutableViewI5QListIN9QSslError8SslErrorEE9QIterableI13QMetaSequenceEN9QtPrivate37QSequentialIterableMutableViewFunctorIS4_EEEEbT1_EUlPvSC_E_@Base 6.0.0
 _ZTSZN9QMetaType19registerMutableViewI5QListISt4pairI9KFileItemS3_EE9QIterableI13QMetaSequenceEN9QtPrivate37QSequentialIterableMutableViewFunctorIS5_EEEEbT1_EUlPvSD_E_@Base 6.0.0
 _ZTV11KSambaShare@Base 6.0.0
 _ZTV14KCoreDirLister@Base 6.0.0
 _ZTV15KRemoteEncoding@Base 6.0.0
 _ZTV18KOverlayIconPlugin@Base 6.0.0
 _ZTV23KFileItemListProperties@Base 6.0.0
 _ZTV25OrgKdeKDirNotifyInterface@Base 6.0.0
 _ZTV4KACL@Base 6.0.0
 _ZTVN3KIO10JobPrivateE@Base 6.0.0
 _ZTVN3KIO10RestoreJobE@Base 6.0.0
 _ZTVN3KIO10SpecialJobE@Base 6.0.0
 _ZTVN3KIO10WorkerBaseE@Base 6.0.0
 _ZTVN3KIO11FileCopyJobE@Base 6.0.0
 _ZTVN3KIO11MimetypeJobE@Base 6.0.0
 _ZTVN3KIO11TransferJobE@Base 6.0.0
 _ZTVN3KIO13EmptyTrashJobE@Base 6.0.0
 _ZTVN3KIO13FavIconsCacheE@Base 6.0.0
 _ZTVN3KIO13NameFinderJobE@Base 6.0.0
 _ZTVN3KIO13WorkerFactoryE@Base 6.0.0
 _ZTVN3KIO14BatchRenameJobE@Base 6.0.0
 _ZTVN3KIO16DirectorySizeJobE@Base 6.0.0
 _ZTVN3KIO17MimeTypeFinderJobE@Base 6.0.0
 _ZTVN3KIO17StoredTransferJobE@Base 6.0.0
 _ZTVN3KIO20ForwardingWorkerBaseE@Base 6.0.0
 _ZTVN3KIO20JobUiDelegateFactoryE@Base 6.0.0
 _ZTVN3KIO22AskUserActionInterfaceE@Base 6.0.0
 _ZTVN3KIO22FileSystemFreeSpaceJobE@Base 6.0.0
 _ZTVN3KIO22JobUiDelegateExtensionE@Base 6.0.0
 _ZTVN3KIO32UntrustedProgramHandlerInterfaceE@Base 6.0.0
 _ZTVN3KIO3JobE@Base 6.0.0
 _ZTVN3KIO6DavJobE@Base 6.0.0
 _ZTVN3KIO7CopyJobE@Base 6.0.0
 _ZTVN3KIO7FileJobE@Base 6.0.0
 _ZTVN3KIO7ListJobE@Base 6.0.0
 _ZTVN3KIO7StatJobE@Base 6.0.0
 _ZTVN3KIO8ChmodJobE@Base 6.0.0
 _ZTVN3KIO8MkdirJobE@Base 6.0.0
 _ZTVN3KIO9DeleteJobE@Base 6.0.0
 _ZTVN3KIO9MkpathJobE@Base 6.0.0
 _ZTVN3KIO9SimpleJobE@Base 6.0.0
 (optional=templinst)_ZZN9QMetaType21registerConverterImplI5QListI15QSslCertificateE9QIterableI13QMetaSequenceEEEbSt8functionIFbPKvPvEES_S_E10unregister@Base 6.0.0
 (optional=templinst)_ZZN9QMetaType21registerConverterImplI5QListI4QUrlE9QIterableI13QMetaSequenceEEEbSt8functionIFbPKvPvEES_S_E10unregister@Base 6.0.0
 (optional=templinst)_ZZN9QMetaType21registerConverterImplI5QListIN3KIO8UDSEntryEE9QIterableI13QMetaSequenceEEEbSt8functionIFbPKvPvEES_S_E10unregister@Base 6.0.0
 (optional=templinst)_ZZN9QMetaType21registerConverterImplI5QListIN9QSslError8SslErrorEE9QIterableI13QMetaSequenceEEEbSt8functionIFbPKvPvEES_S_E10unregister@Base 6.0.0
 (optional=templinst)_ZZN9QMetaType21registerConverterImplI5QListISt4pairI9KFileItemS3_EE9QIterableI13QMetaSequenceEEEbSt8functionIFbPKvPvEES_S_E10unregister@Base 6.0.0
 (optional=templinst)_ZZN9QMetaType21registerConverterImplISt4pairI9KFileItemS2_EN17QtMetaTypePrivate25QPairVariantInterfaceImplEEEbSt8functionIFbPKvPvEES_S_E10unregister@Base 6.0.0
 (optional=templinst)_ZZN9QMetaType23registerMutableViewImplI5QListI15QSslCertificateE9QIterableI13QMetaSequenceEEEbSt8functionIFbPvS8_EES_S_E10unregister@Base 6.0.0
 (optional=templinst)_ZZN9QMetaType23registerMutableViewImplI5QListI4QUrlE9QIterableI13QMetaSequenceEEEbSt8functionIFbPvS8_EES_S_E10unregister@Base 6.0.0
 (optional=templinst)_ZZN9QMetaType23registerMutableViewImplI5QListIN3KIO8UDSEntryEE9QIterableI13QMetaSequenceEEEbSt8functionIFbPvS9_EES_S_E10unregister@Base 6.0.0
 (optional=templinst)_ZZN9QMetaType23registerMutableViewImplI5QListIN9QSslError8SslErrorEE9QIterableI13QMetaSequenceEEEbSt8functionIFbPvS9_EES_S_E10unregister@Base 6.0.0
 (optional=templinst)_ZZN9QMetaType23registerMutableViewImplI5QListISt4pairI9KFileItemS3_EE9QIterableI13QMetaSequenceEEEbSt8functionIFbPvSA_EES_S_E10unregister@Base 6.0.0
 _ZZNSt19_Sp_make_shared_tag5_S_tiEvE5__tag@Base 6.0.0
 _ZeqRKN3KIO8UDSEntryES2_@Base 6.0.0
 _Zls6QDebugRK11KFileFilter@Base 6.0.0
 _Zls6QDebugRK28QExplicitlySharedDataPointerI11KMountPointE@Base 6.0.0
 _Zls6QDebugRK9KFileItem@Base 6.0.0
 _Zls6QDebugRKN3KIO8UDSEntryE@Base 6.0.0
 _ZlsR11QDataStreamRK4KACL@Base 6.0.0
 _ZlsR11QDataStreamRK9KFileItem@Base 6.0.0
 _ZlsR11QDataStreamRKN3KIO8UDSEntryE@Base 6.0.0
 _ZneRKN3KIO8UDSEntryES2_@Base 6.0.0
 _ZrsR11QDataStreamR4KACL@Base 6.0.0
 _ZrsR11QDataStreamR9KFileItem@Base 6.0.0
 _ZrsR11QDataStreamRN3KIO8UDSEntryE@Base 6.0.0
 kio_resolve_local_urls@Base 6.0.0
 (c++)"non-virtual thunk to KIO::ForwardingWorkerBase::chmod(QUrl const&, int)@Base" 6.0.0
 (c++)"non-virtual thunk to KIO::ForwardingWorkerBase::copy(QUrl const&, QUrl const&, int, QFlags<KIO::JobFlag>)@Base" 6.0.0
 (c++)"non-virtual thunk to KIO::ForwardingWorkerBase::del(QUrl const&, bool)@Base" 6.0.0
 (c++)"non-virtual thunk to KIO::ForwardingWorkerBase::get(QUrl const&)@Base" 6.0.0
 (c++)"non-virtual thunk to KIO::ForwardingWorkerBase::listDir(QUrl const&)@Base" 6.0.0
 (c++)"non-virtual thunk to KIO::ForwardingWorkerBase::mimetype(QUrl const&)@Base" 6.0.0
 (c++)"non-virtual thunk to KIO::ForwardingWorkerBase::mkdir(QUrl const&, int)@Base" 6.0.0
 (c++)"non-virtual thunk to KIO::ForwardingWorkerBase::put(QUrl const&, int, QFlags<KIO::JobFlag>)@Base" 6.0.0
 (c++)"non-virtual thunk to KIO::ForwardingWorkerBase::rename(QUrl const&, QUrl const&, QFlags<KIO::JobFlag>)@Base" 6.0.0
 (c++)"non-virtual thunk to KIO::ForwardingWorkerBase::setModificationTime(QUrl const&, QDateTime const&)@Base" 6.0.0
 (c++)"non-virtual thunk to KIO::ForwardingWorkerBase::stat(QUrl const&)@Base" 6.0.0
 (c++)"non-virtual thunk to KIO::ForwardingWorkerBase::symlink(QString const&, QUrl const&, QFlags<KIO::JobFlag>)@Base" 6.0.0
 (c++)"non-virtual thunk to KIO::ForwardingWorkerBase::~ForwardingWorkerBase()@Base" 6.0.0
