# SymbolsHelper-Confirmed: 6.8.0 amd64
libKF6KIOGui.so.6 libkf6kiogui6 #MINVER#
* Build-Depends-Package: libkf6kio-dev
 (arch=linux-any)_ZGVZN9QMetaType21registerConverterImplI5QListI11ExecCommandE9QIterableI13QMetaSequenceEEEbSt8functionIFbPKvPvEES_S_E10unregister@Base 6.0.0
 (arch=linux-any)_ZGVZN9QMetaType21registerConverterImplI5QListI12TransientAuxE9QIterableI13QMetaSequenceEEEbSt8functionIFbPKvPvEES_S_E10unregister@Base 6.0.0
 (arch=linux-any)_ZGVZN9QMetaType21registerConverterImplI5QListI17QVariantMultiItemE9QIterableI13QMetaSequenceEEEbSt8functionIFbPKvPvEES_S_E10unregister@Base 6.0.0
 (arch=linux-any)_ZGVZN9QMetaType21registerConverterImplI5QListIjE9QIterableI13QMetaSequenceEEEbSt8functionIFbPKvPvEES_S_E10unregister@Base 6.0.0
 (arch=linux-any)_ZGVZN9QMetaType23registerMutableViewImplI5QListI11ExecCommandE9QIterableI13QMetaSequenceEEEbSt8functionIFbPvS8_EES_S_E10unregister@Base 6.0.0
 (arch=linux-any)_ZGVZN9QMetaType23registerMutableViewImplI5QListI12TransientAuxE9QIterableI13QMetaSequenceEEEbSt8functionIFbPvS8_EES_S_E10unregister@Base 6.0.0
 (arch=linux-any)_ZGVZN9QMetaType23registerMutableViewImplI5QListI17QVariantMultiItemE9QIterableI13QMetaSequenceEEEbSt8functionIFbPvS8_EES_S_E10unregister@Base 6.0.0
 (arch=linux-any)_ZGVZN9QMetaType23registerMutableViewImplI5QListIjE9QIterableI13QMetaSequenceEEEbSt8functionIFbPvS7_EES_S_E10unregister@Base 6.0.0
 _ZN10KUriFilter11filteredUriERK4QUrlRK5QListI7QStringE@Base 6.0.0
 _ZN10KUriFilter11filteredUriERK7QStringRK5QListIS0_E@Base 6.0.0
 _ZN10KUriFilter15filterSearchUriER14KUriFilterData6QFlagsINS_16SearchFilterTypeEE@Base 6.0.0
 _ZN10KUriFilter4selfEv@Base 6.0.0
 _ZN10KUriFilter9filterUriER14KUriFilterDataRK5QListI7QStringE@Base 6.0.0
 _ZN10KUriFilter9filterUriER4QUrlRK5QListI7QStringE@Base 6.0.0
 _ZN10KUriFilter9filterUriER7QStringRK5QListIS0_E@Base 6.0.0
 _ZN10KUriFilterC1Ev@Base 6.0.0
 _ZN10KUriFilterC2Ev@Base 6.0.0
 _ZN10KUriFilterD1Ev@Base 6.0.0
 _ZN10KUriFilterD2Ev@Base 6.0.0
 (arch=linux-any)_ZN13QMetaSequence12MetaSequenceI5QListI11ExecCommandEE5valueE@Base 6.0.0
 (arch=linux-any)_ZN13QMetaSequence12MetaSequenceI5QListI12TransientAuxEE5valueE@Base 6.0.0
 (arch=linux-any)_ZN13QMetaSequence12MetaSequenceI5QListI17QVariantMultiItemEE5valueE@Base 6.0.0
 (arch=linux-any)_ZN13QMetaSequence12MetaSequenceI5QListIjEE5valueE@Base 6.0.0
 _ZN14KProcessRunner11fromCommandERK7QStringS2_S2_RK10QByteArrayS2_RK19QProcessEnvironment@Base 6.0.0
 _ZN14KProcessRunner11qt_metacallEN11QMetaObject4CallEiPPv@Base 6.0.0
 _ZN14KProcessRunner11qt_metacastEPKc@Base 6.0.0
 _ZN14KProcessRunner13instanceCountEv@Base 6.0.0
 _ZN14KProcessRunner14escapeUnitNameERK7QString@Base 6.0.0
 _ZN14KProcessRunner14fromExecutableERK7QStringRK5QListIS0_ES2_RK10QByteArrayS2_RK19QProcessEnvironment@Base 6.0.0
 _ZN14KProcessRunner14processStartedEx@Base 6.0.0
 _ZN14KProcessRunner15fromApplicationERK28QExplicitlySharedDataPointerI8KServiceERK7QStringRK5QListI4QUrlE6QFlagsIN3KIO22ApplicationLauncherJob7RunFlagEES7_RK10QByteArray@Base 6.0.0
 _ZN14KProcessRunner16emitDelayedErrorERK7QString@Base 6.0.0
 _ZN14KProcessRunner16staticMetaObjectE@Base 6.0.0
 _ZN14KProcessRunner19initFromDesktopNameERK7QStringS2_RK10QByteArrayS2_RK19QProcessEnvironment@Base 6.0.0
 _ZN14KProcessRunner28terminateStartupNotificationEv@Base 6.0.0
 _ZN14KProcessRunner4initERK28QExplicitlySharedDataPointerI8KServiceERK7QStringS7_RK10QByteArray@Base 6.0.0
 _ZN14KProcessRunner5errorERK7QString@Base 6.0.0
 _ZN14KProcessRunner6setPidEx@Base 6.0.0
 _ZN14KProcessRunnerC1Ev@Base 6.0.0
 _ZN14KProcessRunnerC2Ev@Base 6.0.0
 _ZN14KProcessRunnerD0Ev@Base 6.0.0
 _ZN14KProcessRunnerD1Ev@Base 6.0.0
 _ZN14KProcessRunnerD2Ev@Base 6.0.0
 _ZN14KUriFilterData15setAbsolutePathERK7QString@Base 6.0.0
 _ZN14KUriFilterData19setDefaultUrlSchemeERK7QString@Base 6.0.0
 _ZN14KUriFilterData22setCheckForExecutablesEb@Base 6.0.0
 _ZN14KUriFilterData25setSearchFilteringOptionsE6QFlagsINS_18SearchFilterOptionEE@Base 6.0.0
 _ZN14KUriFilterData27setAlternateSearchProvidersERK5QListI7QStringE@Base 6.0.0
 _ZN14KUriFilterData33setAlternateDefaultSearchProviderERK7QString@Base 6.0.0
 _ZN14KUriFilterData7setDataERK4QUrl@Base 6.0.0
 _ZN14KUriFilterData7setDataERK7QString@Base 6.0.0
 _ZN14KUriFilterData8iconNameEv@Base 6.0.0
 _ZN14KUriFilterDataC1ERK4QUrl@Base 6.0.0
 _ZN14KUriFilterDataC1ERK7QString@Base 6.0.0
 _ZN14KUriFilterDataC1ERKS_@Base 6.0.0
 _ZN14KUriFilterDataC1Ev@Base 6.0.0
 _ZN14KUriFilterDataC2ERK4QUrl@Base 6.0.0
 _ZN14KUriFilterDataC2ERK7QString@Base 6.0.0
 _ZN14KUriFilterDataC2ERKS_@Base 6.0.0
 _ZN14KUriFilterDataC2Ev@Base 6.0.0
 _ZN14KUriFilterDataD1Ev@Base 6.0.0
 _ZN14KUriFilterDataD2Ev@Base 6.0.0
 _ZN14KUriFilterDataaSERK4QUrl@Base 6.0.0
 _ZN14KUriFilterDataaSERK7QString@Base 6.0.0
 _ZN16KUriFilterPlugin11qt_metacallEN11QMetaObject4CallEiPPv@Base 6.0.0
 _ZN16KUriFilterPlugin11qt_metacastEPKc@Base 6.0.0
 _ZN16KUriFilterPlugin16staticMetaObjectE@Base 6.0.0
 _ZN16KUriFilterPluginC1EP7QObjectRK15KPluginMetaData@Base 6.0.0
 _ZN16KUriFilterPluginC2EP7QObjectRK15KPluginMetaData@Base 6.0.0
 _ZN16KUriFilterPluginD0Ev@Base 6.0.0
 _ZN16KUriFilterPluginD1Ev@Base 6.0.0
 _ZN16KUriFilterPluginD2Ev@Base 6.0.0
 _ZN17KCoreUrlNavigator11qt_metacallEN11QMetaObject4CallEiPPv@Base 6.0.0
 _ZN17KCoreUrlNavigator11qt_metacastEPKc@Base 6.0.0
 _ZN17KCoreUrlNavigator14historyChangedEv@Base 6.0.0
 _ZN17KCoreUrlNavigator16staticMetaObjectE@Base 6.0.0
 _ZN17KCoreUrlNavigator17saveLocationStateERK8QVariant@Base 6.0.0
 _ZN17KCoreUrlNavigator18historySizeChangedEv@Base 6.0.0
 _ZN17KCoreUrlNavigator19historyIndexChangedEv@Base 6.0.0
 _ZN17KCoreUrlNavigator21setCurrentLocationUrlERK4QUrl@Base 6.0.0
 _ZN17KCoreUrlNavigator21urlSelectionRequestedERK4QUrl@Base 6.0.0
 _ZN17KCoreUrlNavigator23currentUrlAboutToChangeERK4QUrl@Base 6.0.0
 _ZN17KCoreUrlNavigator25currentLocationUrlChangedEv@Base 6.0.0
 _ZN17KCoreUrlNavigator4goUpEv@Base 6.0.0
 _ZN17KCoreUrlNavigator6goBackEv@Base 6.0.0
 _ZN17KCoreUrlNavigator9goForwardEv@Base 6.0.0
 _ZN17KCoreUrlNavigatorC1ERK4QUrlP7QObject@Base 6.0.0
 _ZN17KCoreUrlNavigatorC2ERK4QUrlP7QObject@Base 6.0.0
 _ZN17KCoreUrlNavigatorD0Ev@Base 6.0.0
 _ZN17KCoreUrlNavigatorD1Ev@Base 6.0.0
 _ZN17KCoreUrlNavigatorD2Ev@Base 6.0.0
 _ZN20KTerminalLauncherJob11qt_metacallEN11QMetaObject4CallEiPPv@Base 6.0.0
 _ZN20KTerminalLauncherJob11qt_metacastEPKc@Base 6.0.0
 _ZN20KTerminalLauncherJob12setStartupIdERK10QByteArray@Base 6.0.0
 _ZN20KTerminalLauncherJob16staticMetaObjectE@Base 6.0.0
 _ZN20KTerminalLauncherJob19setWorkingDirectoryERK7QString@Base 6.0.0
 _ZN20KTerminalLauncherJob20determineFullCommandEb@Base 6.0.0
 _ZN20KTerminalLauncherJob21setProcessEnvironmentERK19QProcessEnvironment@Base 6.0.0
 _ZN20KTerminalLauncherJob5startEv@Base 6.0.0
 _ZN20KTerminalLauncherJobC1ERK7QStringP7QObject@Base 6.0.0
 _ZN20KTerminalLauncherJobC2ERK7QStringP7QObject@Base 6.0.0
 _ZN20KTerminalLauncherJobD0Ev@Base 6.0.0
 _ZN20KTerminalLauncherJobD1Ev@Base 6.0.0
 _ZN20KTerminalLauncherJobD2Ev@Base 6.0.0
 _ZN23KEMailClientLauncherJob10setSubjectERK7QString@Base 6.0.0
 _ZN23KEMailClientLauncherJob11qt_metacallEN11QMetaObject4CallEiPPv@Base 6.0.0
 _ZN23KEMailClientLauncherJob11qt_metacastEPKc@Base 6.0.0
 _ZN23KEMailClientLauncherJob12setStartupIdERK10QByteArray@Base 6.0.0
 _ZN23KEMailClientLauncherJob14setAttachmentsERK5QListI4QUrlE@Base 6.0.0
 _ZN23KEMailClientLauncherJob16staticMetaObjectE@Base 6.0.0
 _ZN23KEMailClientLauncherJob5setCcERK5QListI7QStringE@Base 6.0.0
 _ZN23KEMailClientLauncherJob5setToERK5QListI7QStringE@Base 6.0.0
 _ZN23KEMailClientLauncherJob5startEv@Base 6.0.0
 _ZN23KEMailClientLauncherJob6setBccERK5QListI7QStringE@Base 6.0.0
 _ZN23KEMailClientLauncherJob7setBodyERK7QString@Base 6.0.0
 _ZN23KEMailClientLauncherJobC1EP7QObject@Base 6.0.0
 _ZN23KEMailClientLauncherJobC2EP7QObject@Base 6.0.0
 _ZN23KEMailClientLauncherJobD0Ev@Base 6.0.0
 _ZN23KEMailClientLauncherJobD1Ev@Base 6.0.0
 _ZN23KEMailClientLauncherJobD2Ev@Base 6.0.0
 _ZN24KUriFilterSearchProvider11setIconNameERK7QString@Base 6.0.0
 _ZN24KUriFilterSearchProvider19setDesktopEntryNameERK7QString@Base 6.0.0
 _ZN24KUriFilterSearchProvider7setKeysERK5QListI7QStringE@Base 6.0.0
 _ZN24KUriFilterSearchProvider7setNameERK7QString@Base 6.0.0
 _ZN24KUriFilterSearchProviderC1ERKS_@Base 6.0.0
 _ZN24KUriFilterSearchProviderC1Ev@Base 6.0.0
 _ZN24KUriFilterSearchProviderC2ERKS_@Base 6.0.0
 _ZN24KUriFilterSearchProviderC2Ev@Base 6.0.0
 _ZN24KUriFilterSearchProviderD0Ev@Base 6.0.0
 _ZN24KUriFilterSearchProviderD1Ev@Base 6.0.0
 _ZN24KUriFilterSearchProviderD2Ev@Base 6.0.0
 _ZN24KUriFilterSearchProvideraSERKS_@Base 6.0.0
 _ZN3KIO10OpenUrlJob10slotResultEP4KJob@Base 6.0.0
 _ZN3KIO10OpenUrlJob11qt_metacallEN11QMetaObject4CallEiPPv@Base 6.0.0
 _ZN3KIO10OpenUrlJob11qt_metacastEPKc@Base 6.0.0
 _ZN3KIO10OpenUrlJob12setStartupIdERK10QByteArray@Base 6.0.0
 _ZN3KIO10OpenUrlJob13mimeTypeFoundERK7QString@Base 6.0.0
 _ZN3KIO10OpenUrlJob16isExecutableFileERK4QUrlRK7QString@Base 6.0.0
 _ZN3KIO10OpenUrlJob16staticMetaObjectE@Base 6.0.0
 _ZN3KIO10OpenUrlJob17setRunExecutablesEb@Base 6.0.0
 _ZN3KIO10OpenUrlJob20setSuggestedFileNameERK7QString@Base 6.0.0
 _ZN3KIO10OpenUrlJob21setFollowRedirectionsEb@Base 6.0.0
 _ZN3KIO10OpenUrlJob22setDeleteTemporaryFileEb@Base 6.0.0
 _ZN3KIO10OpenUrlJob24setEnableExternalBrowserEb@Base 6.0.0
 _ZN3KIO10OpenUrlJob26setShowOpenOrExecuteDialogEb@Base 6.0.0
 _ZN3KIO10OpenUrlJob5startEv@Base 6.0.0
 _ZN3KIO10OpenUrlJob6doKillEv@Base 6.0.0
 _ZN3KIO10OpenUrlJobC1ERK4QUrlP7QObject@Base 6.0.0
 _ZN3KIO10OpenUrlJobC1ERK4QUrlRK7QStringP7QObject@Base 6.0.0
 _ZN3KIO10OpenUrlJobC2ERK4QUrlP7QObject@Base 6.0.0
 _ZN3KIO10OpenUrlJobC2ERK4QUrlRK7QStringP7QObject@Base 6.0.0
 _ZN3KIO10OpenUrlJobD0Ev@Base 6.0.0
 _ZN3KIO10OpenUrlJobD1Ev@Base 6.0.0
 _ZN3KIO10OpenUrlJobD2Ev@Base 6.0.0
 _ZN3KIO10PreviewJob10gotPreviewERK9KFileItemRK7QPixmap@Base 6.0.0
 _ZN3KIO10PreviewJob10removeItemERK4QUrl@Base 6.0.0
 _ZN3KIO10PreviewJob10slotResultEP4KJob@Base 6.0.0
 _ZN3KIO10PreviewJob11qt_metacallEN11QMetaObject4CallEiPPv@Base 6.0.0
 _ZN3KIO10PreviewJob11qt_metacastEPKc@Base 6.0.0
 _ZN3KIO10PreviewJob12setScaleTypeENS0_9ScaleTypeE@Base 6.0.0
 _ZN3KIO10PreviewJob14defaultPluginsEv@Base 6.0.0
 _ZN3KIO10PreviewJob16availablePluginsEv@Base 6.0.0
 _ZN3KIO10PreviewJob16setSequenceIndexEi@Base 6.0.0
 _ZN3KIO10PreviewJob16staticMetaObjectE@Base 6.0.0
 _ZN3KIO10PreviewJob18supportedMimeTypesEv@Base 6.0.0
 _ZN3KIO10PreviewJob19setDevicePixelRatioEd@Base 6.0.0
 _ZN3KIO10PreviewJob20setIgnoreMaximumSizeEb@Base 6.0.0
 _ZN3KIO10PreviewJob26setDefaultDevicePixelRatioEd@Base 6.0.0
 _ZN3KIO10PreviewJob27availableThumbnailerPluginsEv@Base 6.0.0
 _ZN3KIO10PreviewJob6failedERK9KFileItem@Base 6.0.0
 _ZN3KIO10PreviewJobC1ERK13KFileItemListRK5QSizePK5QListI7QStringE@Base 6.0.0
 _ZN3KIO10PreviewJobC2ERK13KFileItemListRK5QSizePK5QListI7QStringE@Base 6.0.0
 _ZN3KIO10PreviewJobD0Ev@Base 6.0.0
 _ZN3KIO10PreviewJobD1Ev@Base 6.0.0
 _ZN3KIO10PreviewJobD2Ev@Base 6.0.0
 _ZN3KIO11filePreviewERK13KFileItemListRK5QSizePK5QListI7QStringE@Base 6.0.0
 _ZN3KIO14hasDiscreteGpuEv@Base 6.0.0
 _ZN3KIO15ThumbnailResult31setSequenceIndexWraparoundPointEf@Base 6.0.0
 _ZN3KIO15ThumbnailResult4failEv@Base 6.0.0
 _ZN3KIO15ThumbnailResult4passERK6QImage@Base 6.0.0
 _ZN3KIO15ThumbnailResultC1ERKS0_@Base 6.0.0
 _ZN3KIO15ThumbnailResultC2ERKS0_@Base 6.0.0
 _ZN3KIO15ThumbnailResultD1Ev@Base 6.0.0
 _ZN3KIO15ThumbnailResultD2Ev@Base 6.0.0
 _ZN3KIO15ThumbnailResultaSERKS0_@Base 6.0.0
 _ZN3KIO16ThumbnailCreator11qt_metacallEN11QMetaObject4CallEiPPv@Base 6.0.0
 _ZN3KIO16ThumbnailCreator11qt_metacastEPKc@Base 6.0.0
 _ZN3KIO16ThumbnailCreator16staticMetaObjectE@Base 6.0.0
 _ZN3KIO16ThumbnailCreatorC1EP7QObjectRK5QListI8QVariantE@Base 6.0.0
 _ZN3KIO16ThumbnailCreatorC2EP7QObjectRK5QListI8QVariantE@Base 6.0.0
 _ZN3KIO16ThumbnailCreatorD0Ev@Base 6.0.0
 _ZN3KIO16ThumbnailCreatorD1Ev@Base 6.0.0
 _ZN3KIO16ThumbnailCreatorD2Ev@Base 6.0.0
 _ZN3KIO16ThumbnailRequestC1ERK4QUrlRK5QSizeRK7QStringdf@Base 6.0.0
 _ZN3KIO16ThumbnailRequestC1ERKS0_@Base 6.0.0
 _ZN3KIO16ThumbnailRequestC2ERK4QUrlRK5QSizeRK7QStringdf@Base 6.0.0
 _ZN3KIO16ThumbnailRequestC2ERKS0_@Base 6.0.0
 _ZN3KIO16ThumbnailRequestD1Ev@Base 6.0.0
 _ZN3KIO16ThumbnailRequestD2Ev@Base 6.0.0
 _ZN3KIO16ThumbnailRequestaSERKS0_@Base 6.0.0
 _ZN3KIO17FavIconRequestJob10setIconUrlERK4QUrl@Base 6.0.0
 _ZN3KIO17FavIconRequestJob10slotResultEP4KJob@Base 6.0.0
 _ZN3KIO17FavIconRequestJob11qt_metacallEN11QMetaObject4CallEiPPv@Base 6.0.0
 _ZN3KIO17FavIconRequestJob11qt_metacastEPKc@Base 6.0.0
 _ZN3KIO17FavIconRequestJob16staticMetaObjectE@Base 6.0.0
 _ZN3KIO17FavIconRequestJobC1ERK4QUrlNS_8LoadTypeEP7QObject@Base 6.0.0
 _ZN3KIO17FavIconRequestJobC2ERK4QUrlNS_8LoadTypeEP7QObject@Base 6.0.0
 _ZN3KIO17FavIconRequestJobD0Ev@Base 6.0.0
 _ZN3KIO17FavIconRequestJobD1Ev@Base 6.0.0
 _ZN3KIO17FavIconRequestJobD2Ev@Base 6.0.0
 _ZN3KIO18CommandLauncherJob10setCommandERK7QString@Base 6.0.0
 _ZN3KIO18CommandLauncherJob12setStartupIdERK10QByteArray@Base 6.0.0
 _ZN3KIO18CommandLauncherJob13setExecutableERK7QString@Base 6.0.0
 _ZN3KIO18CommandLauncherJob14setDesktopNameERK7QString@Base 6.0.0
 _ZN3KIO18CommandLauncherJob14waitForStartedEv@Base 6.0.0
 _ZN3KIO18CommandLauncherJob19setWorkingDirectoryERK7QString@Base 6.0.0
 _ZN3KIO18CommandLauncherJob21setProcessEnvironmentERK19QProcessEnvironment@Base 6.0.0
 _ZN3KIO18CommandLauncherJob5startEv@Base 6.0.0
 _ZN3KIO18CommandLauncherJobC1ERK7QStringP7QObject@Base 6.0.0
 _ZN3KIO18CommandLauncherJobC1ERK7QStringRK5QListIS1_EP7QObject@Base 6.0.0
 _ZN3KIO18CommandLauncherJobC2ERK7QStringP7QObject@Base 6.0.0
 _ZN3KIO18CommandLauncherJobC2ERK7QStringRK5QListIS1_EP7QObject@Base 6.0.0
 _ZN3KIO18CommandLauncherJobD0Ev@Base 6.0.0
 _ZN3KIO18CommandLauncherJobD1Ev@Base 6.0.0
 _ZN3KIO18CommandLauncherJobD2Ev@Base 6.0.0
 _ZN3KIO18DndPopupMenuPlugin11qt_metacallEN11QMetaObject4CallEiPPv@Base 6.0.0
 _ZN3KIO18DndPopupMenuPlugin11qt_metacastEPKc@Base 6.0.0
 _ZN3KIO18DndPopupMenuPlugin16staticMetaObjectE@Base 6.0.0
 _ZN3KIO18DndPopupMenuPluginC1EP7QObject@Base 6.0.0
 _ZN3KIO18DndPopupMenuPluginC2EP7QObject@Base 6.0.0
 _ZN3KIO18DndPopupMenuPluginD0Ev@Base 6.0.0
 _ZN3KIO18DndPopupMenuPluginD1Ev@Base 6.0.0
 _ZN3KIO18DndPopupMenuPluginD2Ev@Base 6.0.0
 _ZN3KIO22ApplicationLauncherJob11setRunFlagsE6QFlagsINS0_7RunFlagEE@Base 6.0.0
 _ZN3KIO22ApplicationLauncherJob12setStartupIdERK10QByteArray@Base 6.0.0
 _ZN3KIO22ApplicationLauncherJob14waitForStartedEv@Base 6.0.0
 _ZN3KIO22ApplicationLauncherJob20setSuggestedFileNameERK7QString@Base 6.0.0
 _ZN3KIO22ApplicationLauncherJob5startEv@Base 6.0.0
 _ZN3KIO22ApplicationLauncherJob7setUrlsERK5QListI4QUrlE@Base 6.0.0
 _ZN3KIO22ApplicationLauncherJobC1EP7QObject@Base 6.0.0
 _ZN3KIO22ApplicationLauncherJobC1ERK14KServiceActionP7QObject@Base 6.0.0
 _ZN3KIO22ApplicationLauncherJobC1ERK18KDesktopFileActionP7QObject@Base 6.0.0
 _ZN3KIO22ApplicationLauncherJobC1ERK28QExplicitlySharedDataPointerI8KServiceEP7QObject@Base 6.0.0
 _ZN3KIO22ApplicationLauncherJobC2EP7QObject@Base 6.0.0
 _ZN3KIO22ApplicationLauncherJobC2ERK14KServiceActionP7QObject@Base 6.0.0
 _ZN3KIO22ApplicationLauncherJobC2ERK18KDesktopFileActionP7QObject@Base 6.0.0
 _ZN3KIO22ApplicationLauncherJobC2ERK28QExplicitlySharedDataPointerI8KServiceEP7QObject@Base 6.0.0
 _ZN3KIO22ApplicationLauncherJobD0Ev@Base 6.0.0
 _ZN3KIO22ApplicationLauncherJobD1Ev@Base 6.0.0
 _ZN3KIO22ApplicationLauncherJobD2Ev@Base 6.0.0
 _ZN3KIO22highlightInFileManagerERK5QListI4QUrlERK10QByteArray@Base 6.0.0
 _ZN3KIO24OpenFileManagerWindowJob11qt_metacallEN11QMetaObject4CallEiPPv@Base 6.0.0
 _ZN3KIO24OpenFileManagerWindowJob11qt_metacastEPKc@Base 6.0.0
 _ZN3KIO24OpenFileManagerWindowJob12setStartupIdERK10QByteArray@Base 6.0.0
 _ZN3KIO24OpenFileManagerWindowJob16setHighlightUrlsERK5QListI4QUrlE@Base 6.0.0
 _ZN3KIO24OpenFileManagerWindowJob16staticMetaObjectE@Base 6.0.0
 _ZN3KIO24OpenFileManagerWindowJob5startEv@Base 6.0.0
 _ZN3KIO24OpenFileManagerWindowJobC1EP7QObject@Base 6.0.0
 _ZN3KIO24OpenFileManagerWindowJobC2EP7QObject@Base 6.0.0
 _ZN3KIO24OpenFileManagerWindowJobD0Ev@Base 6.0.0
 _ZN3KIO24OpenFileManagerWindowJobD1Ev@Base 6.0.0
 _ZN3KIO24OpenFileManagerWindowJobD2Ev@Base 6.0.0
 _ZN3KIO24OpenWithHandlerInterface11qt_metacallEN11QMetaObject4CallEiPPv@Base 6.0.0
 _ZN3KIO24OpenWithHandlerInterface11qt_metacastEPKc@Base 6.0.0
 _ZN3KIO24OpenWithHandlerInterface15serviceSelectedERK28QExplicitlySharedDataPointerI8KServiceE@Base 6.0.0
 _ZN3KIO24OpenWithHandlerInterface16staticMetaObjectE@Base 6.0.0
 _ZN3KIO24OpenWithHandlerInterface24promptUserForApplicationEP4KJobRK5QListI4QUrlERK7QString@Base 6.0.0
 _ZN3KIO24OpenWithHandlerInterface7handledEv@Base 6.0.0
 _ZN3KIO24OpenWithHandlerInterface8canceledEv@Base 6.0.0
 _ZN3KIO24OpenWithHandlerInterfaceC1EP7QObject@Base 6.0.0
 _ZN3KIO24OpenWithHandlerInterfaceC2EP7QObject@Base 6.0.0
 _ZN3KIO24OpenWithHandlerInterfaceD0Ev@Base 6.0.0
 _ZN3KIO24OpenWithHandlerInterfaceD1Ev@Base 6.0.0
 _ZN3KIO24OpenWithHandlerInterfaceD2Ev@Base 6.0.0
 _ZN3KIO26OpenOrExecuteFileInterface11executeFileEb@Base 6.0.0
 _ZN3KIO26OpenOrExecuteFileInterface11qt_metacallEN11QMetaObject4CallEiPPv@Base 6.0.0
 _ZN3KIO26OpenOrExecuteFileInterface11qt_metacastEPKc@Base 6.0.0
 _ZN3KIO26OpenOrExecuteFileInterface16staticMetaObjectE@Base 6.0.0
 _ZN3KIO26OpenOrExecuteFileInterface23promptUserOpenOrExecuteEP4KJobRK7QString@Base 6.0.0
 _ZN3KIO26OpenOrExecuteFileInterface8canceledEv@Base 6.0.0
 _ZN3KIO26OpenOrExecuteFileInterfaceC1EP7QObject@Base 6.0.0
 _ZN3KIO26OpenOrExecuteFileInterfaceC2EP7QObject@Base 6.0.0
 _ZN3KIO26OpenOrExecuteFileInterfaceD0Ev@Base 6.0.0
 _ZN3KIO26OpenOrExecuteFileInterfaceD1Ev@Base 6.0.0
 _ZN3KIO26OpenOrExecuteFileInterfaceD2Ev@Base 6.0.0
 _ZNK10KUriFilter11pluginNamesEv@Base 6.0.0
 _ZNK14KProcessRunner10metaObjectEv@Base 6.0.0
 _ZNK14KProcessRunner19resolveServiceAliasEv@Base 6.0.0
 _ZNK14KProcessRunner4nameEv@Base 6.0.0
 _ZNK14KUriFilterData10searchTermEv@Base 6.0.0
 _ZNK14KUriFilterData11typedStringEv@Base 6.0.0
 _ZNK14KUriFilterData12absolutePathEv@Base 6.0.0
 _ZNK14KUriFilterData14argsAndOptionsEv@Base 6.0.0
 _ZNK14KUriFilterData14searchProviderEv@Base 6.0.0
 _ZNK14KUriFilterData15hasAbsolutePathEv@Base 6.0.0
 _ZNK14KUriFilterData16defaultUrlSchemeEv@Base 6.0.0
 _ZNK14KUriFilterData17hasArgsAndOptionsEv@Base 6.0.0
 _ZNK14KUriFilterData19checkForExecutablesEv@Base 6.0.0
 _ZNK14KUriFilterData19searchTermSeparatorEv@Base 6.0.0
 _ZNK14KUriFilterData22queryForSearchProviderERK7QString@Base 6.0.0
 _ZNK14KUriFilterData22searchFilteringOptionsEv@Base 6.0.0
 _ZNK14KUriFilterData24alternateSearchProvidersEv@Base 6.0.0
 _ZNK14KUriFilterData24preferredSearchProvidersEv@Base 6.0.0
 _ZNK14KUriFilterData27allQueriesForSearchProviderERK7QString@Base 6.0.0
 _ZNK14KUriFilterData30alternateDefaultSearchProviderEv@Base 6.0.0
 _ZNK14KUriFilterData31queryForPreferredSearchProviderERK7QString@Base 6.0.0
 _ZNK14KUriFilterData34iconNameForPreferredSearchProviderERK7QString@Base 6.0.0
 _ZNK14KUriFilterData3uriEv@Base 6.0.0
 _ZNK14KUriFilterData7uriTypeEv@Base 6.0.0
 _ZNK14KUriFilterData8errorMsgEv@Base 6.0.0
 _ZNK16KUriFilterPlugin10metaObjectEv@Base 6.0.0
 _ZNK16KUriFilterPlugin10setUriTypeER14KUriFilterDataNS0_8UriTypesE@Base 6.0.0
 _ZNK16KUriFilterPlugin11iconNameForERK4QUrlN14KUriFilterData8UriTypesE@Base 6.0.0
 _ZNK16KUriFilterPlugin11resolveNameERK7QStringm@Base 6.0.0
 _ZNK16KUriFilterPlugin11setErrorMsgER14KUriFilterDataRK7QString@Base 6.0.0
 _ZNK16KUriFilterPlugin12setArgumentsER14KUriFilterDataRK7QString@Base 6.0.0
 _ZNK16KUriFilterPlugin14setFilteredUriER14KUriFilterDataRK4QUrl@Base 6.0.0
 _ZNK16KUriFilterPlugin17setSearchProviderER14KUriFilterDataP24KUriFilterSearchProviderRK7QStringRK5QChar@Base 6.3.0
 _ZNK16KUriFilterPlugin18setSearchProvidersER14KUriFilterDataRK5QListIP24KUriFilterSearchProviderE@Base 6.0.0
 _ZNK17KCoreUrlNavigator10metaObjectEv@Base 6.0.0
 _ZNK17KCoreUrlNavigator11historySizeEv@Base 6.0.0
 _ZNK17KCoreUrlNavigator11locationUrlEi@Base 6.0.0
 _ZNK17KCoreUrlNavigator12historyIndexEv@Base 6.0.0
 _ZNK17KCoreUrlNavigator13locationStateEi@Base 6.0.0
 _ZNK17KCoreUrlNavigator18currentLocationUrlEv@Base 6.0.0
 _ZNK20KTerminalLauncherJob10metaObjectEv@Base 6.0.0
 _ZNK20KTerminalLauncherJob11fullCommandEv@Base 6.0.0
 _ZNK23KEMailClientLauncherJob10metaObjectEv@Base 6.0.0
 _ZNK23KEMailClientLauncherJob20thunderbirdArgumentsEv@Base 6.0.0
 _ZNK23KEMailClientLauncherJob9mailToUrlEv@Base 6.0.0
 _ZNK24KUriFilterSearchProvider10defaultKeyEv@Base 6.0.0
 _ZNK24KUriFilterSearchProvider16desktopEntryNameEv@Base 6.0.0
 _ZNK24KUriFilterSearchProvider4keysEv@Base 6.0.0
 _ZNK24KUriFilterSearchProvider4nameEv@Base 6.0.0
 _ZNK24KUriFilterSearchProvider8iconNameEv@Base 6.0.0
 _ZNK3KIO10OpenUrlJob10metaObjectEv@Base 6.0.0
 _ZNK3KIO10PreviewJob10metaObjectEv@Base 6.0.0
 _ZNK3KIO10PreviewJob13sequenceIndexEv@Base 6.0.0
 _ZNK3KIO10PreviewJob16handlesSequencesEv@Base 6.0.0
 _ZNK3KIO10PreviewJob28sequenceIndexWraparoundPointEv@Base 6.0.0
 _ZNK3KIO10PreviewJob9scaleTypeEv@Base 6.0.0
 _ZNK3KIO15ThumbnailResult28sequenceIndexWraparoundPointEv@Base 6.0.0
 _ZNK3KIO15ThumbnailResult5imageEv@Base 6.0.0
 _ZNK3KIO15ThumbnailResult7isValidEv@Base 6.0.0
 _ZNK3KIO16ThumbnailCreator10metaObjectEv@Base 6.0.0
 _ZNK3KIO16ThumbnailRequest10targetSizeEv@Base 6.0.0
 _ZNK3KIO16ThumbnailRequest13sequenceIndexEv@Base 6.0.0
 _ZNK3KIO16ThumbnailRequest16devicePixelRatioEv@Base 6.0.0
 _ZNK3KIO16ThumbnailRequest3urlEv@Base 6.0.0
 _ZNK3KIO16ThumbnailRequest8mimeTypeEv@Base 6.0.0
 _ZNK3KIO17FavIconRequestJob10metaObjectEv@Base 6.0.0
 _ZNK3KIO17FavIconRequestJob7hostUrlEv@Base 6.0.0
 _ZNK3KIO17FavIconRequestJob8iconFileEv@Base 6.0.0
 _ZNK3KIO18CommandLauncherJob16workingDirectoryEv@Base 6.0.0
 _ZNK3KIO18CommandLauncherJob3pidEv@Base 6.0.0
 _ZNK3KIO18CommandLauncherJob7commandEv@Base 6.0.0
 _ZNK3KIO18DndPopupMenuPlugin10metaObjectEv@Base 6.0.0
 _ZNK3KIO22ApplicationLauncherJob3pidEv@Base 6.0.0
 _ZNK3KIO22ApplicationLauncherJob4pidsEv@Base 6.0.0
 _ZNK3KIO24OpenFileManagerWindowJob10metaObjectEv@Base 6.0.0
 _ZNK3KIO24OpenFileManagerWindowJob13highlightUrlsEv@Base 6.0.0
 _ZNK3KIO24OpenFileManagerWindowJob9startupIdEv@Base 6.0.0
 _ZNK3KIO24OpenWithHandlerInterface10metaObjectEv@Base 6.0.0
 _ZNK3KIO26OpenOrExecuteFileInterface10metaObjectEv@Base 6.0.0
 _ZSt19piecewise_construct@Base 6.0.0
 _ZTI14KProcessRunner@Base 6.0.0
 _ZTI16KUriFilterPlugin@Base 6.0.0
 _ZTI17KCoreUrlNavigator@Base 6.0.0
 _ZTI20KTerminalLauncherJob@Base 6.0.0
 _ZTI23KEMailClientLauncherJob@Base 6.0.0
 _ZTI24KUriFilterSearchProvider@Base 6.0.0
 _ZTIN3KIO10OpenUrlJobE@Base 6.0.0
 _ZTIN3KIO10PreviewJobE@Base 6.0.0
 _ZTIN3KIO16ThumbnailCreatorE@Base 6.0.0
 _ZTIN3KIO17FavIconRequestJobE@Base 6.0.0
 _ZTIN3KIO18CommandLauncherJobE@Base 6.0.0
 _ZTIN3KIO18DndPopupMenuPluginE@Base 6.0.0
 _ZTIN3KIO22ApplicationLauncherJobE@Base 6.0.0
 _ZTIN3KIO24OpenFileManagerWindowJobE@Base 6.0.0
 _ZTIN3KIO24OpenWithHandlerInterfaceE@Base 6.0.0
 _ZTIN3KIO26OpenOrExecuteFileInterfaceE@Base 6.0.0
 (arch=linux-any)_ZTIZN9QMetaType17registerConverterI5QListI11ExecCommandE9QIterableI13QMetaSequenceEN9QtPrivate33QSequentialIterableConvertFunctorIS3_EEEEbT1_EUlPKvPvE_@Base 6.0.0
 (arch=linux-any)_ZTIZN9QMetaType17registerConverterI5QListI12TransientAuxE9QIterableI13QMetaSequenceEN9QtPrivate33QSequentialIterableConvertFunctorIS3_EEEEbT1_EUlPKvPvE_@Base 6.0.0
 (arch=linux-any)_ZTIZN9QMetaType17registerConverterI5QListI17QVariantMultiItemE9QIterableI13QMetaSequenceEN9QtPrivate33QSequentialIterableConvertFunctorIS3_EEEEbT1_EUlPKvPvE_@Base 6.0.0
 (arch=linux-any)_ZTIZN9QMetaType17registerConverterI5QListIjE9QIterableI13QMetaSequenceEN9QtPrivate33QSequentialIterableConvertFunctorIS2_EEEEbT1_EUlPKvPvE_@Base 6.0.0
 (arch=linux-any)_ZTIZN9QMetaType19registerMutableViewI5QListI11ExecCommandE9QIterableI13QMetaSequenceEN9QtPrivate37QSequentialIterableMutableViewFunctorIS3_EEEEbT1_EUlPvSB_E_@Base 6.0.0
 (arch=linux-any)_ZTIZN9QMetaType19registerMutableViewI5QListI12TransientAuxE9QIterableI13QMetaSequenceEN9QtPrivate37QSequentialIterableMutableViewFunctorIS3_EEEEbT1_EUlPvSB_E_@Base 6.0.0
 (arch=linux-any)_ZTIZN9QMetaType19registerMutableViewI5QListI17QVariantMultiItemE9QIterableI13QMetaSequenceEN9QtPrivate37QSequentialIterableMutableViewFunctorIS3_EEEEbT1_EUlPvSB_E_@Base 6.0.0
 (arch=linux-any)_ZTIZN9QMetaType19registerMutableViewI5QListIjE9QIterableI13QMetaSequenceEN9QtPrivate37QSequentialIterableMutableViewFunctorIS2_EEEEbT1_EUlPvSA_E_@Base 6.0.0
 _ZTS14KProcessRunner@Base 6.0.0
 _ZTS16KUriFilterPlugin@Base 6.0.0
 _ZTS17KCoreUrlNavigator@Base 6.0.0
 _ZTS20KTerminalLauncherJob@Base 6.0.0
 _ZTS23KEMailClientLauncherJob@Base 6.0.0
 _ZTS24KUriFilterSearchProvider@Base 6.0.0
 _ZTSN3KIO10OpenUrlJobE@Base 6.0.0
 _ZTSN3KIO10PreviewJobE@Base 6.0.0
 _ZTSN3KIO16ThumbnailCreatorE@Base 6.0.0
 _ZTSN3KIO17FavIconRequestJobE@Base 6.0.0
 _ZTSN3KIO18CommandLauncherJobE@Base 6.0.0
 _ZTSN3KIO18DndPopupMenuPluginE@Base 6.0.0
 _ZTSN3KIO22ApplicationLauncherJobE@Base 6.0.0
 _ZTSN3KIO24OpenFileManagerWindowJobE@Base 6.0.0
 _ZTSN3KIO24OpenWithHandlerInterfaceE@Base 6.0.0
 _ZTSN3KIO26OpenOrExecuteFileInterfaceE@Base 6.0.0
 (arch=linux-any)_ZTSZN9QMetaType17registerConverterI5QListI11ExecCommandE9QIterableI13QMetaSequenceEN9QtPrivate33QSequentialIterableConvertFunctorIS3_EEEEbT1_EUlPKvPvE_@Base 6.0.0
 (arch=linux-any)_ZTSZN9QMetaType17registerConverterI5QListI12TransientAuxE9QIterableI13QMetaSequenceEN9QtPrivate33QSequentialIterableConvertFunctorIS3_EEEEbT1_EUlPKvPvE_@Base 6.0.0
 (arch=linux-any)_ZTSZN9QMetaType17registerConverterI5QListI17QVariantMultiItemE9QIterableI13QMetaSequenceEN9QtPrivate33QSequentialIterableConvertFunctorIS3_EEEEbT1_EUlPKvPvE_@Base 6.0.0
 (arch=linux-any)_ZTSZN9QMetaType17registerConverterI5QListIjE9QIterableI13QMetaSequenceEN9QtPrivate33QSequentialIterableConvertFunctorIS2_EEEEbT1_EUlPKvPvE_@Base 6.0.0
 (arch=linux-any)_ZTSZN9QMetaType19registerMutableViewI5QListI11ExecCommandE9QIterableI13QMetaSequenceEN9QtPrivate37QSequentialIterableMutableViewFunctorIS3_EEEEbT1_EUlPvSB_E_@Base 6.0.0
 (arch=linux-any)_ZTSZN9QMetaType19registerMutableViewI5QListI12TransientAuxE9QIterableI13QMetaSequenceEN9QtPrivate37QSequentialIterableMutableViewFunctorIS3_EEEEbT1_EUlPvSB_E_@Base 6.0.0
 (arch=linux-any)_ZTSZN9QMetaType19registerMutableViewI5QListI17QVariantMultiItemE9QIterableI13QMetaSequenceEN9QtPrivate37QSequentialIterableMutableViewFunctorIS3_EEEEbT1_EUlPvSB_E_@Base 6.0.0
 (arch=linux-any)_ZTSZN9QMetaType19registerMutableViewI5QListIjE9QIterableI13QMetaSequenceEN9QtPrivate37QSequentialIterableMutableViewFunctorIS2_EEEEbT1_EUlPvSA_E_@Base 6.0.0
 _ZTV14KProcessRunner@Base 6.0.0
 _ZTV16KUriFilterPlugin@Base 6.0.0
 _ZTV17KCoreUrlNavigator@Base 6.0.0
 _ZTV20KTerminalLauncherJob@Base 6.0.0
 _ZTV23KEMailClientLauncherJob@Base 6.0.0
 _ZTV24KUriFilterSearchProvider@Base 6.0.0
 _ZTVN3KIO10OpenUrlJobE@Base 6.0.0
 _ZTVN3KIO10PreviewJobE@Base 6.0.0
 _ZTVN3KIO16ThumbnailCreatorE@Base 6.0.0
 _ZTVN3KIO17FavIconRequestJobE@Base 6.0.0
 _ZTVN3KIO18CommandLauncherJobE@Base 6.0.0
 _ZTVN3KIO18DndPopupMenuPluginE@Base 6.0.0
 _ZTVN3KIO22ApplicationLauncherJobE@Base 6.0.0
 _ZTVN3KIO24OpenFileManagerWindowJobE@Base 6.0.0
 _ZTVN3KIO24OpenWithHandlerInterfaceE@Base 6.0.0
 _ZTVN3KIO26OpenOrExecuteFileInterfaceE@Base 6.0.0
 (optional=templinst|arch=linux-any)_ZZN9QMetaType21registerConverterImplI5QListI11ExecCommandE9QIterableI13QMetaSequenceEEEbSt8functionIFbPKvPvEES_S_E10unregister@Base 6.0.0
 (optional=templinst|arch=linux-any)_ZZN9QMetaType21registerConverterImplI5QListI12TransientAuxE9QIterableI13QMetaSequenceEEEbSt8functionIFbPKvPvEES_S_E10unregister@Base 6.0.0
 (optional=templinst|arch=linux-any)_ZZN9QMetaType21registerConverterImplI5QListI17QVariantMultiItemE9QIterableI13QMetaSequenceEEEbSt8functionIFbPKvPvEES_S_E10unregister@Base 6.0.0
 (optional=templinst|arch=linux-any)_ZZN9QMetaType21registerConverterImplI5QListIjE9QIterableI13QMetaSequenceEEEbSt8functionIFbPKvPvEES_S_E10unregister@Base 6.0.0
 (optional=templinst|arch=linux-any)_ZZN9QMetaType23registerMutableViewImplI5QListI11ExecCommandE9QIterableI13QMetaSequenceEEEbSt8functionIFbPvS8_EES_S_E10unregister@Base 6.0.0
 (optional=templinst|arch=linux-any)_ZZN9QMetaType23registerMutableViewImplI5QListI12TransientAuxE9QIterableI13QMetaSequenceEEEbSt8functionIFbPvS8_EES_S_E10unregister@Base 6.0.0
 (optional=templinst|arch=linux-any)_ZZN9QMetaType23registerMutableViewImplI5QListI17QVariantMultiItemE9QIterableI13QMetaSequenceEEEbSt8functionIFbPvS8_EES_S_E10unregister@Base 6.0.0
 (optional=templinst|arch=linux-any)_ZZN9QMetaType23registerMutableViewImplI5QListIjE9QIterableI13QMetaSequenceEEEbSt8functionIFbPvS7_EES_S_E10unregister@Base 6.0.0
 openurljob_force_use_browserapp_kdeglobals@Base 6.0.0
