# SymbolsHelper-Confirmed: 6.3.0 amd64
libKF6KIOFileWidgets.so.6 libkf6kiofilewidgets6 #MINVER#, kio6
* Build-Depends-Package: libkf6kio-dev
 _ZGVZN9QMetaType21registerConverterImplI5QListI4QUrlE9QIterableI13QMetaSequenceEEEbSt8functionIFbPKvPvEES_S_E10unregister@Base 6.0.0
 _ZGVZN9QMetaType21registerConverterImplI5QListIN3KIO8UDSEntryEE9QIterableI13QMetaSequenceEEEbSt8functionIFbPKvPvEES_S_E10unregister@Base 6.0.0
 _ZGVZN9QMetaType21registerConverterImplI5QListIiE9QIterableI13QMetaSequenceEEEbSt8functionIFbPKvPvEES_S_E10unregister@Base 6.0.0
 _ZGVZN9QMetaType23registerMutableViewImplI5QListI4QUrlE9QIterableI13QMetaSequenceEEEbSt8functionIFbPvS8_EES_S_E10unregister@Base 6.0.0
 _ZGVZN9QMetaType23registerMutableViewImplI5QListIN3KIO8UDSEntryEE9QIterableI13QMetaSequenceEEEbSt8functionIFbPvS9_EES_S_E10unregister@Base 6.0.0
 _ZGVZN9QMetaType23registerMutableViewImplI5QListIiE9QIterableI13QMetaSequenceEEEbSt8functionIFbPvS7_EES_S_E10unregister@Base 6.0.0
 _ZN11KFileWidget10readConfigER12KConfigGroup@Base 6.0.0
 _ZN11KFileWidget10setFiltersERK5QListI11KFileFilterERKS1_@Base 6.0.0
 _ZN11KFileWidget10slotCancelEv@Base 6.0.0
 _ZN11KFileWidget11clearFilterEv@Base 6.0.0
 _ZN11KFileWidget11dirOperatorEv@Base 6.0.0
 _ZN11KFileWidget11eventFilterEP7QObjectP6QEvent@Base 6.0.0
 _ZN11KFileWidget11getStartUrlERK4QUrlR7QString@Base 6.0.0
 _ZN11KFileWidget11getStartUrlERK4QUrlR7QStringS4_@Base 6.0.0
 _ZN11KFileWidget11qt_metacallEN11QMetaObject4CallEiPPv@Base 6.0.0
 _ZN11KFileWidget11qt_metacastEPKc@Base 6.0.0
 _ZN11KFileWidget11resizeEventEP12QResizeEvent@Base 6.0.0
 _ZN11KFileWidget11setStartDirERK4QUrl@Base 6.0.0
 _ZN11KFileWidget11setViewModeEN5KFile8FileViewE@Base 6.0.0
 _ZN11KFileWidget12fileSelectedERK4QUrl@Base 6.0.0
 _ZN11KFileWidget13filterChangedERK11KFileFilter@Base 6.0.0
 _ZN11KFileWidget14setSelectedUrlERK4QUrl@Base 6.0.0
 _ZN11KFileWidget15fileHighlightedERK4QUrl@Base 6.0.0
 _ZN11KFileWidget15setCustomWidgetEP7QWidget@Base 6.0.0
 _ZN11KFileWidget15setCustomWidgetERK7QStringP7QWidget@Base 6.0.0
 _ZN11KFileWidget15setKeepLocationEb@Base 6.0.0
 _ZN11KFileWidget15setSelectedUrlsERK5QListI4QUrlE@Base 6.0.0
 _ZN11KFileWidget16selectionChangedEv@Base 6.0.0
 _ZN11KFileWidget16setLocationLabelERK7QString@Base 6.0.0
 _ZN11KFileWidget16setOperationModeENS_13OperationModeE@Base 6.0.0
 _ZN11KFileWidget16setPreviewWidgetEP18KPreviewWidgetBase@Base 6.0.0
 _ZN11KFileWidget16staticMetaObjectE@Base 6.0.0
 _ZN11KFileWidget19setConfirmOverwriteEb@Base 6.0.0
 _ZN11KFileWidget19setSupportedSchemesERK5QListI7QStringE@Base 6.0.0
 _ZN11KFileWidget21setInlinePreviewShownEb@Base 6.0.0
 _ZN11KFileWidget6acceptEv@Base 6.0.0
 _ZN11KFileWidget6setUrlERK4QUrlb@Base 6.0.0
 _ZN11KFileWidget6slotOkEv@Base 6.0.0
 _ZN11KFileWidget7setModeE6QFlagsIN5KFile4ModeEE@Base 6.0.0
 _ZN11KFileWidget8acceptedEv@Base 6.0.0
 _ZN11KFileWidget9showEventEP10QShowEvent@Base 6.0.0
 _ZN11KFileWidgetC1ERK4QUrlP7QWidget@Base 6.0.0
 _ZN11KFileWidgetC2ERK4QUrlP7QWidget@Base 6.0.0
 _ZN11KFileWidgetD0Ev@Base 6.0.0
 _ZN11KFileWidgetD1Ev@Base 6.0.0
 _ZN11KFileWidgetD2Ev@Base 6.0.0
 _ZN12KDirOperator10completionERK7QString@Base 6.0.0
 _ZN12KDirOperator10createViewEP7QWidgetN5KFile8FileViewE@Base 6.0.0
 _ZN12KDirOperator10readConfigERK12KConfigGroup@Base 6.0.0
 _ZN12KDirOperator10selectFileERK9KFileItem@Base 6.0.0
 _ZN12KDirOperator10setSortingE6QFlagsIN4QDir8SortFlagEE@Base 6.0.0
 _ZN12KDirOperator10sortByDateEv@Base 6.0.0
 _ZN12KDirOperator10sortByNameEv@Base 6.0.0
 _ZN12KDirOperator10sortBySizeEv@Base 6.0.0
 _ZN12KDirOperator10sortByTypeEv@Base 6.0.0
 _ZN12KDirOperator10urlEnteredERK4QUrl@Base 6.0.0
 _ZN12KDirOperator11changeEventEP6QEvent@Base 6.0.0
 _ZN12KDirOperator11clearFilterEv@Base 6.0.0
 _ZN12KDirOperator11dirOnlyModeEj@Base 6.0.0
 _ZN12KDirOperator11eventFilterEP7QObjectP6QEvent@Base 6.0.0
 _ZN12KDirOperator11pathChangedEv@Base 6.0.0
 _ZN12KDirOperator11qt_metacallEN11QMetaObject4CallEiPPv@Base 6.0.0
 _ZN12KDirOperator11qt_metacastEPKc@Base 6.0.0
 _ZN12KDirOperator11resetCursorEv@Base 6.0.0
 _ZN12KDirOperator11resizeEventEP12QResizeEvent@Base 6.0.0
 _ZN12KDirOperator11setIconSizeEi@Base 6.0.0
 _ZN12KDirOperator11setIsSavingEb@Base 6.0.0
 _ZN12KDirOperator11setViewModeEN5KFile8FileViewE@Base 6.0.0
 _ZN12KDirOperator11viewChangedEP17QAbstractItemView@Base 6.0.0
 _ZN12KDirOperator11writeConfigER12KConfigGroup@Base 6.0.0
 _ZN12KDirOperator12clearHistoryEv@Base 6.0.0
 _ZN12KDirOperator12dirActivatedERK9KFileItem@Base 6.0.0
 _ZN12KDirOperator12fileSelectedERK9KFileItem@Base 6.0.0
 _ZN12KDirOperator12setDirListerEP10KDirLister@Base 6.0.0
 _ZN12KDirOperator12setupActionsEv@Base 6.0.0
 _ZN12KDirOperator12sortReversedEv@Base 6.0.0
 _ZN12KDirOperator13activatedMenuERK9KFileItemRK6QPoint@Base 6.0.0
 _ZN12KDirOperator13highlightFileERK9KFileItem@Base 6.0.0
 _ZN12KDirOperator13setMimeFilterERK5QListI7QStringE@Base 6.0.0
 _ZN12KDirOperator13setNameFilterERK7QString@Base 6.0.0
 _ZN12KDirOperator13setViewConfigER12KConfigGroup@Base 6.0.0
 _ZN12KDirOperator13trashSelectedEv@Base 6.0.0
 _ZN12KDirOperator14deleteSelectedEv@Base 6.0.0
 _ZN12KDirOperator14makeCompletionERK7QString@Base 6.0.0
 _ZN12KDirOperator14renameSelectedEv@Base 6.0.0
 _ZN12KDirOperator14setAcceptDropsEb@Base 6.0.0
 _ZN12KDirOperator14setCurrentItemERK4QUrl@Base 6.0.0
 _ZN12KDirOperator14setCurrentItemERK9KFileItem@Base 6.0.0
 _ZN12KDirOperator14setDropOptionsEi@Base 6.0.0
 _ZN12KDirOperator15fileHighlightedERK9KFileItem@Base 6.0.0
 _ZN12KDirOperator15finishedLoadingEv@Base 6.0.0
 _ZN12KDirOperator15setCurrentItemsERK13KFileItemList@Base 6.0.0
 _ZN12KDirOperator15setCurrentItemsERK5QListI4QUrlE@Base 6.0.0
 _ZN12KDirOperator15toggleDirsFirstEv@Base 6.0.0
 _ZN12KDirOperator16renamingFinishedERK5QListI4QUrlE@Base 6.0.0
 _ZN12KDirOperator16setPreviewWidgetEP18KPreviewWidgetBase@Base 6.0.0
 _ZN12KDirOperator16staticMetaObjectE@Base 6.0.0
 _ZN12KDirOperator16toggleIgnoreCaseEv@Base 6.0.0
 _ZN12KDirOperator17makeDirCompletionERK7QString@Base 6.0.0
 _ZN12KDirOperator17updateInformationEii@Base 6.0.0
 _ZN12KDirOperator17updateSortActionsEv@Base 6.0.0
 _ZN12KDirOperator17updateViewActionsEv@Base 6.0.0
 _ZN12KDirOperator18setShowHiddenFilesEb@Base 6.0.0
 _ZN12KDirOperator19checkPreviewSupportEv@Base 6.0.0
 _ZN12KDirOperator19setSupportedSchemesERK5QListI7QStringE@Base 6.0.0
 _ZN12KDirOperator19showOpenWithActionsEb@Base 6.0.0
 _ZN12KDirOperator19slotCompletionMatchERK7QString@Base 6.0.0
 _ZN12KDirOperator21keyEnterReturnPressedEv@Base 6.0.0
 _ZN12KDirOperator21setDecorationPositionEN20QStyleOptionViewItem8PositionE@Base 6.0.0
 _ZN12KDirOperator21setInlinePreviewShownEb@Base 6.0.0
 _ZN12KDirOperator22contextMenuAboutToShowERK9KFileItemP5QMenu@Base 6.0.0
 _ZN12KDirOperator22currentIconSizeChangedEi@Base 6.0.0
 _ZN12KDirOperator23setFollowNewDirectoriesEb@Base 6.0.0
 _ZN12KDirOperator24prepareCompletionObjectsEv@Base 6.0.0
 _ZN12KDirOperator24setEnableDirHighlightingEb@Base 6.0.0
 _ZN12KDirOperator28setFollowSelectedDirectoriesEb@Base 6.0.0
 _ZN12KDirOperator30setOnlyDoubleClickSelectsFilesEb@Base 6.0.0
 _ZN12KDirOperator31updateSelectionDependentActionsEv@Base 6.0.0
 _ZN12KDirOperator32setNewFileMenuSupportedMimeTypesERK5QListI7QStringE@Base 6.0.0
 _ZN12KDirOperator39setNewFileMenuSelectDirWhenAlreadyExistEb@Base 6.0.0
 _ZN12KDirOperator3delERK13KFileItemListP7QWidgetbb@Base 6.0.0
 _ZN12KDirOperator4backEv@Base 6.0.0
 _ZN12KDirOperator4cdUpEv@Base 6.0.0
 _ZN12KDirOperator4homeEv@Base 6.0.0
 _ZN12KDirOperator5closeEv@Base 6.0.0
 _ZN12KDirOperator5mkdirEv@Base 6.0.0
 _ZN12KDirOperator5trashERK13KFileItemListP7QWidgetbb@Base 6.0.0
 _ZN12KDirOperator6setUrlERK4QUrlb@Base 6.0.0
 _ZN12KDirOperator7droppedERK9KFileItemP10QDropEventRK5QListI4QUrlE@Base 6.0.0
 _ZN12KDirOperator7forwardEv@Base 6.0.0
 _ZN12KDirOperator7setModeE6QFlagsIN5KFile4ModeEE@Base 6.0.0
 _ZN12KDirOperator9rereadDirEv@Base 6.0.0
 _ZN12KDirOperator9selectDirERK9KFileItem@Base 6.0.0
 _ZN12KDirOperator9setupMenuEi@Base 6.0.0
 _ZN12KDirOperator9setupMenuEv@Base 6.0.0
 _ZN12KDirOperator9updateDirEv@Base 6.0.0
 _ZN12KDirOperatorC1ERK4QUrlP7QWidget@Base 6.0.0
 _ZN12KDirOperatorC2ERK4QUrlP7QWidget@Base 6.0.0
 _ZN12KDirOperatorD0Ev@Base 6.0.0
 _ZN12KDirOperatorD1Ev@Base 6.0.0
 _ZN12KDirOperatorD2Ev@Base 6.0.0
 _ZN12KNewFileMenu10createFileEv@Base 6.0.0
 _ZN12KNewFileMenu10slotResultEP4KJob@Base 6.0.0
 _ZN12KNewFileMenu11fileCreatedERK4QUrl@Base 6.0.0
 _ZN12KNewFileMenu11qt_metacallEN11QMetaObject4CallEiPPv@Base 6.0.0
 _ZN12KNewFileMenu11qt_metacastEPKc@Base 6.0.0
 _ZN12KNewFileMenu13checkUpToDateEv@Base 6.0.0
 _ZN12KNewFileMenu15createDirectoryEv@Base 6.0.0
 _ZN12KNewFileMenu15setParentWidgetEP7QWidget@Base 6.0.0
 _ZN12KNewFileMenu16directoryCreatedERK4QUrl@Base 6.0.0
 _ZN12KNewFileMenu16staticMetaObjectE@Base 6.0.0
 _ZN12KNewFileMenu17selectExistingDirERK4QUrl@Base 6.0.0
 _ZN12KNewFileMenu19fileCreationStartedERK4QUrl@Base 6.3.0
 _ZN12KNewFileMenu19isCreateFileRunningEv@Base 6.3.0
 _ZN12KNewFileMenu19setWorkingDirectoryERK4QUrl@Base 6.0.0
 _ZN12KNewFileMenu20fileCreationRejectedERK4QUrl@Base 6.3.0
 _ZN12KNewFileMenu21setSupportedMimeTypesERK5QListI7QStringE@Base 6.0.0
 _ZN12KNewFileMenu24directoryCreationStartedERK4QUrl@Base 6.3.0
 _ZN12KNewFileMenu24isCreateDirectoryRunningEv@Base 6.3.0
 _ZN12KNewFileMenu24setNewFileShortcutActionEP7QAction@Base 6.0.0
 _ZN12KNewFileMenu25directoryCreationRejectedERK4QUrl@Base 6.3.0
 _ZN12KNewFileMenu26setNewFolderShortcutActionEP7QAction@Base 6.0.0
 _ZN12KNewFileMenu28setSelectDirWhenAlreadyExistEb@Base 6.0.0
 _ZN12KNewFileMenu8setModalEb@Base 6.0.0
 _ZN12KNewFileMenuC1EP7QObject@Base 6.0.0
 _ZN12KNewFileMenuC2EP7QObject@Base 6.0.0
 _ZN12KNewFileMenuD0Ev@Base 6.0.0
 _ZN12KNewFileMenuD1Ev@Base 6.0.0
 _ZN12KNewFileMenuD2Ev@Base 6.0.0
 _ZN13KUrlNavigator10setHomeUrlERK4QUrl@Base 6.0.0
 _ZN13KUrlNavigator10urlChangedERK4QUrl@Base 6.0.0
 _ZN13KUrlNavigator10wheelEventEP11QWheelEvent@Base 6.0.0
 _ZN13KUrlNavigator11eventFilterEP7QObjectP6QEvent@Base 6.0.0
 _ZN13KUrlNavigator11qt_metacallEN11QMetaObject4CallEiPPv@Base 6.0.0
 _ZN13KUrlNavigator11qt_metacastEPKc@Base 6.0.0
 _ZN13KUrlNavigator11resizeEventEP12QResizeEvent@Base 6.0.0
 _ZN13KUrlNavigator11urlsDroppedERK4QUrlP10QDropEvent@Base 6.0.0
 _ZN13KUrlNavigator12tabRequestedERK4QUrl@Base 6.0.0
 _ZN13KUrlNavigator13keyPressEventEP9QKeyEvent@Base 6.0.0
 _ZN13KUrlNavigator13returnPressedEv@Base 6.0.0
 _ZN13KUrlNavigator14historyChangedEv@Base 6.0.0
 _ZN13KUrlNavigator14setBadgeWidgetEP7QWidget@Base 6.3.0
 _ZN13KUrlNavigator14setLocationUrlERK4QUrl@Base 6.0.0
 _ZN13KUrlNavigator14setUrlEditableEb@Base 6.0.0
 _ZN13KUrlNavigator15keyReleaseEventEP9QKeyEvent@Base 6.0.0
 _ZN13KUrlNavigator15mousePressEventEP11QMouseEvent@Base 6.0.0
 _ZN13KUrlNavigator15setShowFullPathEb@Base 6.0.0
 _ZN13KUrlNavigator16staticMetaObjectE@Base 6.0.0
 _ZN13KUrlNavigator17mouseReleaseEventEP11QMouseEvent@Base 6.0.0
 _ZN13KUrlNavigator17requestActivationEv@Base 6.0.0
 _ZN13KUrlNavigator17saveLocationStateERK10QByteArray@Base 6.0.0
 _ZN13KUrlNavigator18activeTabRequestedERK4QUrl@Base 6.0.0
 _ZN13KUrlNavigator18newWindowRequestedERK4QUrl@Base 6.0.0
 _ZN13KUrlNavigator19setSupportedSchemesERK5QListI7QStringE@Base 6.0.0
 _ZN13KUrlNavigator19urlAboutToBeChangedERK4QUrl@Base 6.0.0
 _ZN13KUrlNavigator20editableStateChangedEb@Base 6.0.0
 _ZN13KUrlNavigator20setShowHiddenFoldersEb@Base 6.0.0
 _ZN13KUrlNavigator21urlSelectionRequestedERK4QUrl@Base 6.0.0
 _ZN13KUrlNavigator24setPlacesSelectorVisibleEb@Base 6.0.0
 _ZN13KUrlNavigator24setSortHiddenFoldersLastEb@Base 6.0.0
 _ZN13KUrlNavigator4goUpEv@Base 6.0.0
 _ZN13KUrlNavigator6goBackEv@Base 6.0.0
 _ZN13KUrlNavigator6goHomeEv@Base 6.0.0
 _ZN13KUrlNavigator8setFocusEv@Base 6.0.0
 _ZN13KUrlNavigator9activatedEv@Base 6.0.0
 _ZN13KUrlNavigator9goForwardEv@Base 6.0.0
 _ZN13KUrlNavigator9setActiveEb@Base 6.0.0
 _ZN13KUrlNavigatorC1EP16KFilePlacesModelRK4QUrlP7QWidget@Base 6.0.0
 _ZN13KUrlNavigatorC1EP7QWidget@Base 6.0.0
 _ZN13KUrlNavigatorC2EP16KFilePlacesModelRK4QUrlP7QWidget@Base 6.0.0
 _ZN13KUrlNavigatorC2EP7QWidget@Base 6.0.0
 _ZN13KUrlNavigatorD0Ev@Base 6.0.0
 _ZN13KUrlNavigatorD1Ev@Base 6.0.0
 _ZN13KUrlNavigatorD2Ev@Base 6.0.0
 _ZN13QMetaSequence12MetaSequenceI5QListI4QUrlEE5valueE@Base 6.0.0
 _ZN13QMetaSequence12MetaSequenceI5QListIN3KIO8UDSEntryEEE5valueE@Base 6.0.0
 _ZN13QMetaSequence12MetaSequenceI5QListIiEE5valueE@Base 6.0.0
 _ZN15KFileCopyToMenu11qt_metacallEN11QMetaObject4CallEiPPv@Base 6.0.0
 _ZN15KFileCopyToMenu11qt_metacastEPKc@Base 6.0.0
 _ZN15KFileCopyToMenu11setReadOnlyEb@Base 6.0.0
 _ZN15KFileCopyToMenu16staticMetaObjectE@Base 6.0.0
 _ZN15KFileCopyToMenu27setAutoErrorHandlingEnabledEb@Base 6.0.0
 _ZN15KFileCopyToMenu5errorEiRK7QString@Base 6.0.0
 _ZN15KFileCopyToMenu7setUrlsERK5QListI4QUrlE@Base 6.0.0
 _ZN15KFileCopyToMenuC1EP7QWidget@Base 6.0.0
 _ZN15KFileCopyToMenuC2EP7QWidget@Base 6.0.0
 _ZN15KFileCopyToMenuD0Ev@Base 6.0.0
 _ZN15KFileCopyToMenuD1Ev@Base 6.0.0
 _ZN15KFileCopyToMenuD2Ev@Base 6.0.0
 _ZN15KFilePlacesView10paintEventEP11QPaintEvent@Base 6.0.0
 _ZN15KFilePlacesView10setShowAllEb@Base 6.0.0
 _ZN15KFilePlacesView10urlChangedERK4QUrl@Base 6.0.0
 _ZN15KFilePlacesView11dataChangedERK11QModelIndexS2_RK5QListIiE@Base 6.0.0
 _ZN15KFilePlacesView11qt_metacallEN11QMetaObject4CallEiPPv@Base 6.0.0
 _ZN15KFilePlacesView11qt_metacastEPKc@Base 6.0.0
 _ZN15KFilePlacesView11resizeEventEP12QResizeEvent@Base 6.0.0
 _ZN15KFilePlacesView11urlsDroppedERK4QUrlP10QDropEventP7QWidget@Base 6.0.0
 _ZN15KFilePlacesView12rowsInsertedERK11QModelIndexii@Base 6.0.0
 _ZN15KFilePlacesView12tabRequestedERK4QUrl@Base 6.0.0
 _ZN15KFilePlacesView13dragMoveEventEP14QDragMoveEvent@Base 6.0.0
 _ZN15KFilePlacesView13keyPressEventEP9QKeyEvent@Base 6.0.0
 _ZN15KFilePlacesView14dragEnterEventEP15QDragEnterEvent@Base 6.0.0
 _ZN15KFilePlacesView14dragLeaveEventEP15QDragLeaveEvent@Base 6.0.0
 _ZN15KFilePlacesView14placeActivatedERK4QUrl@Base 6.0.0
 _ZN15KFilePlacesView15mousePressEventEP11QMouseEvent@Base 6.0.0
 _ZN15KFilePlacesView16contextMenuEventEP17QContextMenuEvent@Base 6.0.0
 _ZN15KFilePlacesView16staticMetaObjectE@Base 6.0.0
 _ZN15KFilePlacesView18activeTabRequestedERK4QUrl@Base 6.0.0
 _ZN15KFilePlacesView18newWindowRequestedERK4QUrl@Base 6.0.0
 _ZN15KFilePlacesView19setTeardownFunctionESt8functionIFvRK11QModelIndexEE@Base 6.0.0
 _ZN15KFilePlacesView21allPlacesShownChangedEb@Base 6.0.0
 _ZN15KFilePlacesView21setDropOnPlaceEnabledEb@Base 6.0.0
 _ZN15KFilePlacesView22contextMenuAboutToShowERK11QModelIndexP5QMenu@Base 6.0.0
 _ZN15KFilePlacesView25setAutoResizeItemsEnabledEb@Base 6.0.0
 _ZN15KFilePlacesView26setDragAutoActivationDelayEi@Base 6.0.0
 _ZN15KFilePlacesView6setUrlERK4QUrl@Base 6.0.0
 _ZN15KFilePlacesView8setModelEP18QAbstractItemModel@Base 6.0.0
 _ZN15KFilePlacesView9dropEventEP10QDropEvent@Base 6.0.0
 _ZN15KFilePlacesView9hideEventEP10QHideEvent@Base 6.0.0
 _ZN15KFilePlacesView9showEventEP10QShowEvent@Base 6.0.0
 _ZN15KFilePlacesView9startDragE6QFlagsIN2Qt10DropActionEE@Base 6.0.0
 _ZN15KFilePlacesViewC1EP7QWidget@Base 6.0.0
 _ZN15KFilePlacesViewC2EP7QWidget@Base 6.0.0
 _ZN15KFilePlacesViewD0Ev@Base 6.0.0
 _ZN15KFilePlacesViewD1Ev@Base 6.0.0
 _ZN15KFilePlacesViewD2Ev@Base 6.0.0
 _ZN16KFileFilterCombo10setFiltersERK5QListI11KFileFilterERKS1_@Base 6.0.0
 _ZN16KFileFilterCombo11eventFilterEP7QObjectP6QEvent@Base 6.0.0
 _ZN16KFileFilterCombo11qt_metacallEN11QMetaObject4CallEiPPv@Base 6.0.0
 _ZN16KFileFilterCombo11qt_metacastEPKc@Base 6.0.0
 _ZN16KFileFilterCombo13filterChangedEv@Base 6.0.0
 _ZN16KFileFilterCombo16setCurrentFilterERK11KFileFilter@Base 6.0.0
 _ZN16KFileFilterCombo16setDefaultFilterERK11KFileFilter@Base 6.0.0
 _ZN16KFileFilterCombo16staticMetaObjectE@Base 6.0.0
 _ZN16KFileFilterComboC1EP7QWidget@Base 6.0.0
 _ZN16KFileFilterComboC2EP7QWidget@Base 6.0.0
 _ZN16KFileFilterComboD0Ev@Base 6.0.0
 _ZN16KFileFilterComboD1Ev@Base 6.0.0
 _ZN16KFileFilterComboD2Ev@Base 6.0.0
 _ZN16KFileMetaPreview11qt_metacallEN11QMetaObject4CallEiPPv@Base 6.0.0
 _ZN16KFileMetaPreview11qt_metacastEPKc@Base 6.0.0
 _ZN16KFileMetaPreview11showPreviewERK4QUrl@Base 6.0.0
 _ZN16KFileMetaPreview12clearPreviewEv@Base 6.0.0
 _ZN16KFileMetaPreview16staticMetaObjectE@Base 6.0.0
 _ZN16KFileMetaPreview17s_tryAudioPreviewE@Base 6.0.0
 _ZN16KFileMetaPreview18addPreviewProviderERK7QStringP18KPreviewWidgetBase@Base 6.0.0
 _ZN16KFileMetaPreview18createAudioPreviewEP7QWidget@Base 6.0.0
 _ZN16KFileMetaPreview18previewProviderForERK7QString@Base 6.0.0
 _ZN16KFileMetaPreview20initPreviewProvidersEv@Base 6.0.0
 _ZN16KFileMetaPreview21clearPreviewProvidersEv@Base 6.0.0
 _ZN16KFileMetaPreviewC1EP7QWidget@Base 6.0.0
 _ZN16KFileMetaPreviewC2EP7QWidget@Base 6.0.0
 _ZN16KFileMetaPreviewD0Ev@Base 6.0.0
 _ZN16KFileMetaPreviewD1Ev@Base 6.0.0
 _ZN16KFileMetaPreviewD2Ev@Base 6.0.0
 _ZN16KFilePlacesModel11qt_metacallEN11QMetaObject4CallEiPPv@Base 6.0.0
 _ZN16KFilePlacesModel11qt_metacastEPKc@Base 6.0.0
 _ZN16KFilePlacesModel12convertedUrlERK4QUrl@Base 6.0.0
 _ZN16KFilePlacesModel12dropMimeDataEPK9QMimeDataN2Qt10DropActionEiiRK11QModelIndex@Base 6.0.0
 _ZN16KFilePlacesModel12errorMessageERK7QString@Base 6.0.0
 _ZN16KFilePlacesModel12requestEjectERK11QModelIndex@Base 6.0.0
 _ZN16KFilePlacesModel12requestSetupERK11QModelIndex@Base 6.0.0
 _ZN16KFilePlacesModel12teardownDoneERK11QModelIndexN5Solid9ErrorTypeERK8QVariant@Base 6.0.0
 _ZN16KFilePlacesModel14setGroupHiddenENS_9GroupTypeEb@Base 6.0.0
 _ZN16KFilePlacesModel14setPlaceHiddenERK11QModelIndexb@Base 6.0.0
 _ZN16KFilePlacesModel15requestTeardownERK11QModelIndex@Base 6.0.0
 _ZN16KFilePlacesModel16staticMetaObjectE@Base 6.0.0
 _ZN16KFilePlacesModel18groupHiddenChangedENS_9GroupTypeEb@Base 6.0.0
 _ZN16KFilePlacesModel19setSupportedSchemesERK5QListI7QStringE@Base 6.0.0
 _ZN16KFilePlacesModel23supportedSchemesChangedEv@Base 6.0.0
 _ZN16KFilePlacesModel8addPlaceERK7QStringRK4QUrlS2_S2_@Base 6.0.0
 _ZN16KFilePlacesModel8addPlaceERK7QStringRK4QUrlS2_S2_RK11QModelIndex@Base 6.0.0
 _ZN16KFilePlacesModel8reloadedEv@Base 6.0.0
 _ZN16KFilePlacesModel9editPlaceERK11QModelIndexRK7QStringRK4QUrlS5_S5_@Base 6.0.0
 _ZN16KFilePlacesModel9movePlaceEii@Base 6.0.0
 _ZN16KFilePlacesModel9setupDoneERK11QModelIndexb@Base 6.0.0
 _ZN16KFilePlacesModelC1EP7QObject@Base 6.0.0
 _ZN16KFilePlacesModelC2EP7QObject@Base 6.0.0
 _ZN16KFilePlacesModelD0Ev@Base 6.0.0
 _ZN16KFilePlacesModelD1Ev@Base 6.0.0
 _ZN16KFilePlacesModelD2Ev@Base 6.0.0
 _ZN17KFileCustomDialog11qt_metacallEN11QMetaObject4CallEiPPv@Base 6.0.0
 _ZN17KFileCustomDialog11qt_metacastEPKc@Base 6.0.0
 _ZN17KFileCustomDialog15setCustomWidgetEP7QWidget@Base 6.0.0
 _ZN17KFileCustomDialog16setOperationModeEN11KFileWidget13OperationModeE@Base 6.0.0
 _ZN17KFileCustomDialog16staticMetaObjectE@Base 6.0.0
 _ZN17KFileCustomDialog6acceptEv@Base 6.0.0
 _ZN17KFileCustomDialog6setUrlERK4QUrl@Base 6.0.0
 _ZN17KFileCustomDialogC1EP7QWidget@Base 6.0.0
 _ZN17KFileCustomDialogC1ERK4QUrlP7QWidget@Base 6.0.0
 _ZN17KFileCustomDialogC2EP7QWidget@Base 6.0.0
 _ZN17KFileCustomDialogC2ERK4QUrlP7QWidget@Base 6.0.0
 _ZN17KFileCustomDialogD0Ev@Base 6.0.0
 _ZN17KFileCustomDialogD1Ev@Base 6.0.0
 _ZN17KFileCustomDialogD2Ev@Base 6.0.0
 _ZN17KImageFilePreview10gotPreviewERK9KFileItemRK7QPixmap@Base 6.0.0
 _ZN17KImageFilePreview11qt_metacallEN11QMetaObject4CallEiPPv@Base 6.0.0
 _ZN17KImageFilePreview11qt_metacastEPKc@Base 6.0.0
 _ZN17KImageFilePreview11resizeEventEP12QResizeEvent@Base 6.0.0
 _ZN17KImageFilePreview11showPreviewERK4QUrl@Base 6.0.0
 _ZN17KImageFilePreview11showPreviewERK4QUrlb@Base 6.0.0
 _ZN17KImageFilePreview11showPreviewEv@Base 6.0.0
 _ZN17KImageFilePreview12clearPreviewEv@Base 6.0.0
 _ZN17KImageFilePreview16staticMetaObjectE@Base 6.0.0
 _ZN17KImageFilePreview9createJobERK4QUrlii@Base 6.0.0
 _ZN17KImageFilePreviewC1EP7QWidget@Base 6.0.0
 _ZN17KImageFilePreviewC2EP7QWidget@Base 6.0.0
 _ZN17KImageFilePreviewD0Ev@Base 6.0.0
 _ZN17KImageFilePreviewD1Ev@Base 6.0.0
 _ZN17KImageFilePreviewD2Ev@Base 6.0.0
 _ZN18KPreviewWidgetBase11qt_metacallEN11QMetaObject4CallEiPPv@Base 6.0.0
 _ZN18KPreviewWidgetBase11qt_metacastEPKc@Base 6.0.0
 _ZN18KPreviewWidgetBase16staticMetaObjectE@Base 6.0.0
 _ZN18KPreviewWidgetBase21setSupportedMimeTypesERK5QListI7QStringE@Base 6.0.0
 _ZN18KPreviewWidgetBaseC1EP7QWidget@Base 6.0.0
 _ZN18KPreviewWidgetBaseC2EP7QWidget@Base 6.0.0
 _ZN18KPreviewWidgetBaseD0Ev@Base 6.0.0
 _ZN18KPreviewWidgetBaseD1Ev@Base 6.0.0
 _ZN18KPreviewWidgetBaseD2Ev@Base 6.0.0
 _ZN19KEncodingFileDialog21getOpenUrlAndEncodingERK7QStringRK4QUrlS2_P7QWidgetS2_@Base 6.0.0
 _ZN19KEncodingFileDialog21getSaveUrlAndEncodingERK7QStringRK4QUrlS2_P7QWidgetS2_@Base 6.0.0
 _ZN19KEncodingFileDialog22getOpenUrlsAndEncodingERK7QStringRK4QUrlS2_P7QWidgetS2_@Base 6.0.0
 _ZN19KEncodingFileDialog26getOpenFileNameAndEncodingERK7QStringRK4QUrlS2_P7QWidgetS2_@Base 6.0.0
 _ZN19KEncodingFileDialog26getSaveFileNameAndEncodingERK7QStringRK4QUrlS2_P7QWidgetS2_@Base 6.0.0
 _ZN19KEncodingFileDialog27getOpenFileNamesAndEncodingERK7QStringRK4QUrlS2_P7QWidgetS2_@Base 6.0.0
 _ZN20KFilePlaceEditDialog10urlChangedERK7QString@Base 6.0.0
 _ZN20KFilePlaceEditDialog11qt_metacallEN11QMetaObject4CallEiPPv@Base 6.0.0
 _ZN20KFilePlaceEditDialog11qt_metacastEPKc@Base 6.0.0
 _ZN20KFilePlaceEditDialog14getInformationEbR4QUrlR7QStringS3_bRbiP7QWidget@Base 6.0.0
 _ZN20KFilePlaceEditDialog16staticMetaObjectE@Base 6.0.0
 _ZN20KFilePlaceEditDialogC1EbRK4QUrlRK7QStringS5_bbiP7QWidget@Base 6.0.0
 _ZN20KFilePlaceEditDialogC2EbRK4QUrlRK7QStringS5_bbiP7QWidget@Base 6.0.0
 _ZN20KFilePlaceEditDialogD0Ev@Base 6.0.0
 _ZN20KFilePlaceEditDialogD1Ev@Base 6.0.0
 _ZN20KFilePlaceEditDialogD2Ev@Base 6.0.0
 _ZN21KFilePreviewGenerator11qt_metacallEN11QMetaObject4CallEiPPv@Base 6.0.0
 _ZN21KFilePreviewGenerator11qt_metacastEPKc@Base 6.0.0
 _ZN21KFilePreviewGenerator11updateIconsEv@Base 6.0.0
 _ZN21KFilePreviewGenerator14cancelPreviewsEv@Base 6.0.0
 _ZN21KFilePreviewGenerator15setPreviewShownEb@Base 6.0.0
 _ZN21KFilePreviewGenerator16staticMetaObjectE@Base 6.0.0
 _ZN21KFilePreviewGenerator17setEnabledPluginsERK5QListI7QStringE@Base 6.0.0
 _ZN21KFilePreviewGeneratorC1EP17QAbstractItemView@Base 6.0.0
 _ZN21KFilePreviewGeneratorC1EP20KAbstractViewAdapterP19QAbstractProxyModel@Base 6.0.0
 _ZN21KFilePreviewGeneratorC2EP17QAbstractItemView@Base 6.0.0
 _ZN21KFilePreviewGeneratorC2EP20KAbstractViewAdapterP19QAbstractProxyModel@Base 6.0.0
 _ZN21KFilePreviewGeneratorD0Ev@Base 6.0.0
 _ZN21KFilePreviewGeneratorD1Ev@Base 6.0.0
 _ZN21KFilePreviewGeneratorD2Ev@Base 6.0.0
 _ZN22KNameAndUrlInputDialog11qt_metacallEN11QMetaObject4CallEiPPv@Base 6.0.0
 _ZN22KNameAndUrlInputDialog11qt_metacastEPKc@Base 6.0.0
 _ZN22KNameAndUrlInputDialog15setSuggestedUrlERK4QUrl@Base 6.0.0
 _ZN22KNameAndUrlInputDialog16setSuggestedNameERK7QString@Base 6.0.0
 _ZN22KNameAndUrlInputDialog16staticMetaObjectE@Base 6.0.0
 _ZN22KNameAndUrlInputDialogC1ERK7QStringS2_RK4QUrlP7QWidget@Base 6.0.0
 _ZN22KNameAndUrlInputDialogC2ERK7QStringS2_RK4QUrlP7QWidget@Base 6.0.0
 _ZN22KNameAndUrlInputDialogD0Ev@Base 6.0.0
 _ZN22KNameAndUrlInputDialogD1Ev@Base 6.0.0
 _ZN22KNameAndUrlInputDialogD2Ev@Base 6.0.0
 _ZN24KDirSortFilterProxyModel11qt_metacallEN11QMetaObject4CallEiPPv@Base 6.0.0
 _ZN24KDirSortFilterProxyModel11qt_metacastEPKc@Base 6.0.0
 _ZN24KDirSortFilterProxyModel16staticMetaObjectE@Base 6.0.0
 _ZN24KDirSortFilterProxyModel19setSortFoldersFirstEb@Base 6.0.0
 _ZN24KDirSortFilterProxyModel20pointsForPermissionsERK9QFileInfo@Base 6.0.0
 _ZN24KDirSortFilterProxyModel22setSortHiddenFilesLastEb@Base 6.0.0
 _ZN24KDirSortFilterProxyModelC1EP7QObject@Base 6.0.0
 _ZN24KDirSortFilterProxyModelC2EP7QObject@Base 6.0.0
 _ZN24KDirSortFilterProxyModelD0Ev@Base 6.0.0
 _ZN24KDirSortFilterProxyModelD1Ev@Base 6.0.0
 _ZN24KDirSortFilterProxyModelD2Ev@Base 6.0.0
 _ZN3KIO18DefaultViewAdapter11qt_metacallEN11QMetaObject4CallEiPPv@Base 6.0.0
 _ZN3KIO18DefaultViewAdapter11qt_metacastEPKc@Base 6.0.0
 _ZN3KIO18DefaultViewAdapter16staticMetaObjectE@Base 6.0.0
 _ZN3KIO18DefaultViewAdapter7connectEN20KAbstractViewAdapter6SignalEP7QObjectPKc@Base 6.0.0
 _ZN3KIO18DefaultViewAdapterC1EP17QAbstractItemViewP7QObject@Base 6.0.0
 _ZN3KIO18DefaultViewAdapterC2EP17QAbstractItemViewP7QObject@Base 6.0.0
 _ZNK11KFileWidget10metaObjectEv@Base 6.0.0
 _ZNK11KFileWidget11selectedUrlEv@Base 6.0.0
 _ZNK11KFileWidget12cancelButtonEv@Base 6.0.0
 _ZNK11KFileWidget12filterWidgetEv@Base 6.0.0
 _ZNK11KFileWidget12locationEditEv@Base 6.0.0
 _ZNK11KFileWidget12selectedFileEv@Base 6.0.0
 _ZNK11KFileWidget12selectedUrlsEv@Base 6.0.0
 _ZNK11KFileWidget13currentFilterEv@Base 6.0.0
 _ZNK11KFileWidget13keepsLocationEv@Base 6.0.0
 _ZNK11KFileWidget13operationModeEv@Base 6.0.0
 _ZNK11KFileWidget13selectedFilesEv@Base 6.0.0
 _ZNK11KFileWidget14dialogSizeHintEv@Base 6.0.0
 _ZNK11KFileWidget16supportedSchemesEv@Base 6.0.0
 _ZNK11KFileWidget4modeEv@Base 6.0.0
 _ZNK11KFileWidget7baseUrlEv@Base 6.0.0
 _ZNK11KFileWidget8okButtonEv@Base 6.0.0
 _ZNK11KFileWidget8sizeHintEv@Base 6.0.0
 _ZNK12KDirOperator10allActionsEv@Base 6.0.0
 _ZNK12KDirOperator10isSelectedERK9KFileItem@Base 6.0.0
 _ZNK12KDirOperator10metaObjectEv@Base 6.0.0
 _ZNK12KDirOperator10mimeFilterEv@Base 6.0.0
 _ZNK12KDirOperator10nameFilterEv@Base 6.0.0
 _ZNK12KDirOperator11dirOnlyModeEv@Base 6.0.0
 _ZNK12KDirOperator11progressBarEv@Base 6.0.0
 _ZNK12KDirOperator13selectedItemsEv@Base 6.0.0
 _ZNK12KDirOperator15dirHighlightingEv@Base 6.0.0
 _ZNK12KDirOperator15showHiddenFilesEv@Base 6.0.0
 _ZNK12KDirOperator15viewConfigGroupEv@Base 6.0.0
 _ZNK12KDirOperator16completionObjectEv@Base 6.0.0
 _ZNK12KDirOperator16previewGeneratorEv@Base 6.0.0
 _ZNK12KDirOperator16supportedSchemesEv@Base 6.0.0
 _ZNK12KDirOperator18decorationPositionEv@Base 6.0.0
 _ZNK12KDirOperator19dirCompletionObjectEv@Base 6.0.0
 _ZNK12KDirOperator20followNewDirectoriesEv@Base 6.0.0
 _ZNK12KDirOperator20isInlinePreviewShownEv@Base 6.0.0
 _ZNK12KDirOperator25followSelectedDirectoriesEv@Base 6.0.0
 _ZNK12KDirOperator27onlyDoubleClickSelectsFilesEv@Base 6.0.0
 _ZNK12KDirOperator29newFileMenuSupportedMimeTypesEv@Base 6.0.0
 _ZNK12KDirOperator3urlEv@Base 6.0.0
 _ZNK12KDirOperator4modeEv@Base 6.0.0
 _ZNK12KDirOperator4viewEv@Base 6.0.0
 _ZNK12KDirOperator6actionENS_6ActionE@Base 6.0.0
 _ZNK12KDirOperator6isRootEv@Base 6.0.0
 _ZNK12KDirOperator7numDirsEv@Base 6.0.0
 _ZNK12KDirOperator7sortingEv@Base 6.0.0
 _ZNK12KDirOperator8iconSizeEv@Base 6.0.0
 _ZNK12KDirOperator8isSavingEv@Base 6.0.0
 _ZNK12KDirOperator8numFilesEv@Base 6.0.0
 _ZNK12KDirOperator8viewModeEv@Base 6.0.0
 _ZNK12KDirOperator9dirListerEv@Base 6.0.0
 _ZNK12KNewFileMenu10metaObjectEv@Base 6.0.0
 _ZNK12KNewFileMenu16workingDirectoryEv@Base 6.0.0
 _ZNK12KNewFileMenu18supportedMimeTypesEv@Base 6.0.0
 _ZNK12KNewFileMenu7isModalEv@Base 6.0.0
 _ZNK13KUrlNavigator10dropWidgetEv@Base 6.0.0
 _ZNK13KUrlNavigator10metaObjectEv@Base 6.0.0
 _ZNK13KUrlNavigator11badgeWidgetEv@Base 6.3.0
 _ZNK13KUrlNavigator11historySizeEv@Base 6.0.0
 _ZNK13KUrlNavigator11locationUrlEi@Base 6.0.0
 _ZNK13KUrlNavigator12historyIndexEv@Base 6.0.0
 _ZNK13KUrlNavigator12showFullPathEv@Base 6.0.0
 _ZNK13KUrlNavigator13isUrlEditableEv@Base 6.0.0
 _ZNK13KUrlNavigator13locationStateEi@Base 6.0.0
 _ZNK13KUrlNavigator14uncommittedUrlEv@Base 6.0.0
 _ZNK13KUrlNavigator16supportedSchemesEv@Base 6.0.0
 _ZNK13KUrlNavigator17showHiddenFoldersEv@Base 6.0.0
 _ZNK13KUrlNavigator21sortHiddenFoldersLastEv@Base 6.0.0
 _ZNK13KUrlNavigator23isPlacesSelectorVisibleEv@Base 6.0.0
 _ZNK13KUrlNavigator6editorEv@Base 6.0.0
 _ZNK13KUrlNavigator7homeUrlEv@Base 6.0.0
 _ZNK13KUrlNavigator8isActiveEv@Base 6.0.0
 _ZNK15KFileCopyToMenu10metaObjectEv@Base 6.0.0
 _ZNK15KFileCopyToMenu12addActionsToEP5QMenu@Base 6.0.0
 _ZNK15KFilePlacesView10metaObjectEv@Base 6.0.0
 _ZNK15KFilePlacesView14allPlacesShownEv@Base 6.0.0
 _ZNK15KFilePlacesView20isDropOnPlaceEnabledEv@Base 6.0.0
 _ZNK15KFilePlacesView23dragAutoActivationDelayEv@Base 6.0.0
 _ZNK15KFilePlacesView24isAutoResizeItemsEnabledEv@Base 6.0.0
 _ZNK15KFilePlacesView8sizeHintEv@Base 6.0.0
 _ZNK16KFileFilterCombo10metaObjectEv@Base 6.0.0
 _ZNK16KFileFilterCombo13currentFilterEv@Base 6.0.0
 _ZNK16KFileFilterCombo13defaultFilterEv@Base 6.0.0
 _ZNK16KFileFilterCombo13showsAllTypesEv@Base 6.0.0
 _ZNK16KFileFilterCombo7filtersEv@Base 6.0.0
 _ZNK16KFileMetaPreview10metaObjectEv@Base 6.0.0
 _ZNK16KFileMetaPreview20findExistingProviderERK7QStringRK9QMimeType@Base 6.0.0
 _ZNK16KFilePlacesModel10metaObjectEv@Base 6.0.0
 _ZNK16KFilePlacesModel11closestItemERK4QUrl@Base 6.0.0
 _ZNK16KFilePlacesModel11columnCountERK11QModelIndex@Base 6.0.0
 _ZNK16KFilePlacesModel11hiddenCountEv@Base 6.0.0
 _ZNK16KFilePlacesModel11removePlaceERK11QModelIndex@Base 6.0.0
 _ZNK16KFilePlacesModel11setupNeededERK11QModelIndex@Base 6.0.0
 _ZNK16KFilePlacesModel12groupIndexesENS_9GroupTypeE@Base 6.0.0
 _ZNK16KFilePlacesModel13isGroupHiddenENS_9GroupTypeE@Base 6.0.0
 _ZNK16KFilePlacesModel13isGroupHiddenERK11QModelIndex@Base 6.0.0
 _ZNK16KFilePlacesModel14bookmarkForUrlERK4QUrl@Base 6.0.0
 _ZNK16KFilePlacesModel14deviceForIndexERK11QModelIndex@Base 6.0.0
 _ZNK16KFilePlacesModel14isEjectAllowedERK11QModelIndex@Base 6.0.0
 _ZNK16KFilePlacesModel16bookmarkForIndexERK11QModelIndex@Base 6.0.0
 _ZNK16KFilePlacesModel16supportedSchemesEv@Base 6.0.0
 _ZNK16KFilePlacesModel17isTeardownAllowedERK11QModelIndex@Base 6.0.0
 _ZNK16KFilePlacesModel19deviceAccessibilityERK11QModelIndex@Base 6.0.0
 _ZNK16KFilePlacesModel19ejectActionForIndexERK11QModelIndex@Base 6.0.0
 _ZNK16KFilePlacesModel20supportedDropActionsEv@Base 6.0.0
 _ZNK16KFilePlacesModel22teardownActionForIndexERK11QModelIndex@Base 6.0.0
 _ZNK16KFilePlacesModel23partitionActionForIndexERK11QModelIndex@Base 6.0.0
 _ZNK16KFilePlacesModel28isTeardownOverlayRecommendedERK11QModelIndex@Base 6.0.0
 _ZNK16KFilePlacesModel3urlERK11QModelIndex@Base 6.0.0
 _ZNK16KFilePlacesModel4dataERK11QModelIndexi@Base 6.0.0
 _ZNK16KFilePlacesModel4iconERK11QModelIndex@Base 6.0.0
 _ZNK16KFilePlacesModel4textERK11QModelIndex@Base 6.0.0
 _ZNK16KFilePlacesModel5flagsERK11QModelIndex@Base 6.0.0
 _ZNK16KFilePlacesModel5indexEiiRK11QModelIndex@Base 6.0.0
 _ZNK16KFilePlacesModel6parentERK11QModelIndex@Base 6.0.0
 _ZNK16KFilePlacesModel7refreshEv@Base 6.0.0
 _ZNK16KFilePlacesModel8isDeviceERK11QModelIndex@Base 6.0.0
 _ZNK16KFilePlacesModel8isHiddenERK11QModelIndex@Base 6.0.0
 _ZNK16KFilePlacesModel8mimeDataERK5QListI11QModelIndexE@Base 6.0.0
 _ZNK16KFilePlacesModel8rowCountERK11QModelIndex@Base 6.0.0
 _ZNK16KFilePlacesModel9groupTypeERK11QModelIndex@Base 6.0.0
 _ZNK16KFilePlacesModel9mimeTypesEv@Base 6.0.0
 _ZNK16KFilePlacesModel9roleNamesEv@Base 6.0.0
 _ZNK17KFileCustomDialog10fileWidgetEv@Base 6.0.0
 _ZNK17KFileCustomDialog10metaObjectEv@Base 6.0.0
 _ZNK17KImageFilePreview10metaObjectEv@Base 6.0.0
 _ZNK17KImageFilePreview8sizeHintEv@Base 6.0.0
 _ZNK18KPreviewWidgetBase10metaObjectEv@Base 6.0.0
 _ZNK18KPreviewWidgetBase18supportedMimeTypesEv@Base 6.0.0
 _ZNK20KFilePlaceEditDialog10metaObjectEv@Base 6.0.0
 _ZNK20KFilePlaceEditDialog16applicationLocalEv@Base 6.0.0
 _ZNK20KFilePlaceEditDialog3urlEv@Base 6.0.0
 _ZNK20KFilePlaceEditDialog4iconEv@Base 6.0.0
 _ZNK20KFilePlaceEditDialog5labelEv@Base 6.0.0
 _ZNK21KFilePreviewGenerator10metaObjectEv@Base 6.0.0
 _ZNK21KFilePreviewGenerator14enabledPluginsEv@Base 6.0.0
 _ZNK21KFilePreviewGenerator14isPreviewShownEv@Base 6.0.0
 _ZNK22KNameAndUrlInputDialog10metaObjectEv@Base 6.0.0
 _ZNK22KNameAndUrlInputDialog3urlEv@Base 6.0.0
 _ZNK22KNameAndUrlInputDialog4nameEv@Base 6.0.0
 _ZNK22KNameAndUrlInputDialog7urlTextEv@Base 6.0.0
 _ZNK24KDirSortFilterProxyModel10metaObjectEv@Base 6.0.0
 _ZNK24KDirSortFilterProxyModel11hasChildrenERK11QModelIndex@Base 6.0.0
 _ZNK24KDirSortFilterProxyModel12canFetchMoreERK11QModelIndex@Base 6.0.0
 _ZNK24KDirSortFilterProxyModel15subSortLessThanERK11QModelIndexS2_@Base 6.0.0
 _ZNK24KDirSortFilterProxyModel16sortFoldersFirstEv@Base 6.0.0
 _ZNK24KDirSortFilterProxyModel19sortHiddenFilesLastEv@Base 6.0.0
 _ZNK24KDirSortFilterProxyModel20supportedDragOptionsEv@Base 6.0.0
 _ZNK3KIO18DefaultViewAdapter10metaObjectEv@Base 6.0.0
 _ZNK3KIO18DefaultViewAdapter10visualRectERK11QModelIndex@Base 6.0.0
 _ZNK3KIO18DefaultViewAdapter11visibleAreaEv@Base 6.0.0
 _ZNK3KIO18DefaultViewAdapter5modelEv@Base 6.0.0
 _ZNK3KIO18DefaultViewAdapter7paletteEv@Base 6.0.0
 _ZNK3KIO18DefaultViewAdapter8iconSizeEv@Base 6.0.0
 _ZTI11KFileWidget@Base 6.0.0
 _ZTI12KDirOperator@Base 6.0.0
 _ZTI12KNewFileMenu@Base 6.0.0
 _ZTI13KUrlNavigator@Base 6.0.0
 _ZTI15KFileCopyToMenu@Base 6.0.0
 _ZTI15KFilePlacesView@Base 6.0.0
 _ZTI16KFileFilterCombo@Base 6.0.0
 _ZTI16KFileMetaPreview@Base 6.0.0
 _ZTI16KFilePlacesModel@Base 6.0.0
 _ZTI17KFileCustomDialog@Base 6.0.0
 _ZTI17KImageFilePreview@Base 6.0.0
 _ZTI18KPreviewWidgetBase@Base 6.0.0
 _ZTI20KAbstractViewAdapter@Base 6.0.0
 _ZTI20KFilePlaceEditDialog@Base 6.0.0
 _ZTI21KFilePreviewGenerator@Base 6.0.0
 _ZTI22KNameAndUrlInputDialog@Base 6.0.0
 _ZTI24KDirSortFilterProxyModel@Base 6.0.0
 _ZTIN3KIO18DefaultViewAdapterE@Base 6.0.0
 _ZTIZN9QMetaType17registerConverterI5QListI4QUrlE9QIterableI13QMetaSequenceEN9QtPrivate33QSequentialIterableConvertFunctorIS3_EEEEbT1_EUlPKvPvE_@Base 6.0.0
 _ZTIZN9QMetaType17registerConverterI5QListIN3KIO8UDSEntryEE9QIterableI13QMetaSequenceEN9QtPrivate33QSequentialIterableConvertFunctorIS4_EEEEbT1_EUlPKvPvE_@Base 6.0.0
 _ZTIZN9QMetaType17registerConverterI5QListIiE9QIterableI13QMetaSequenceEN9QtPrivate33QSequentialIterableConvertFunctorIS2_EEEEbT1_EUlPKvPvE_@Base 6.0.0
 _ZTIZN9QMetaType19registerMutableViewI5QListI4QUrlE9QIterableI13QMetaSequenceEN9QtPrivate37QSequentialIterableMutableViewFunctorIS3_EEEEbT1_EUlPvSB_E_@Base 6.0.0
 _ZTIZN9QMetaType19registerMutableViewI5QListIN3KIO8UDSEntryEE9QIterableI13QMetaSequenceEN9QtPrivate37QSequentialIterableMutableViewFunctorIS4_EEEEbT1_EUlPvSC_E_@Base 6.0.0
 _ZTIZN9QMetaType19registerMutableViewI5QListIiE9QIterableI13QMetaSequenceEN9QtPrivate37QSequentialIterableMutableViewFunctorIS2_EEEEbT1_EUlPvSA_E_@Base 6.0.0
 _ZTS11KFileWidget@Base 6.0.0
 _ZTS12KDirOperator@Base 6.0.0
 _ZTS12KNewFileMenu@Base 6.0.0
 _ZTS13KUrlNavigator@Base 6.0.0
 _ZTS15KFileCopyToMenu@Base 6.0.0
 _ZTS15KFilePlacesView@Base 6.0.0
 _ZTS16KFileFilterCombo@Base 6.0.0
 _ZTS16KFileMetaPreview@Base 6.0.0
 _ZTS16KFilePlacesModel@Base 6.0.0
 _ZTS17KFileCustomDialog@Base 6.0.0
 _ZTS17KImageFilePreview@Base 6.0.0
 _ZTS18KPreviewWidgetBase@Base 6.0.0
 _ZTS20KAbstractViewAdapter@Base 6.0.0
 _ZTS20KFilePlaceEditDialog@Base 6.0.0
 _ZTS21KFilePreviewGenerator@Base 6.0.0
 _ZTS22KNameAndUrlInputDialog@Base 6.0.0
 _ZTS24KDirSortFilterProxyModel@Base 6.0.0
 _ZTSN3KIO18DefaultViewAdapterE@Base 6.0.0
 _ZTSZN9QMetaType17registerConverterI5QListI4QUrlE9QIterableI13QMetaSequenceEN9QtPrivate33QSequentialIterableConvertFunctorIS3_EEEEbT1_EUlPKvPvE_@Base 6.0.0
 _ZTSZN9QMetaType17registerConverterI5QListIN3KIO8UDSEntryEE9QIterableI13QMetaSequenceEN9QtPrivate33QSequentialIterableConvertFunctorIS4_EEEEbT1_EUlPKvPvE_@Base 6.0.0
 _ZTSZN9QMetaType17registerConverterI5QListIiE9QIterableI13QMetaSequenceEN9QtPrivate33QSequentialIterableConvertFunctorIS2_EEEEbT1_EUlPKvPvE_@Base 6.0.0
 _ZTSZN9QMetaType19registerMutableViewI5QListI4QUrlE9QIterableI13QMetaSequenceEN9QtPrivate37QSequentialIterableMutableViewFunctorIS3_EEEEbT1_EUlPvSB_E_@Base 6.0.0
 _ZTSZN9QMetaType19registerMutableViewI5QListIN3KIO8UDSEntryEE9QIterableI13QMetaSequenceEN9QtPrivate37QSequentialIterableMutableViewFunctorIS4_EEEEbT1_EUlPvSC_E_@Base 6.0.0
 _ZTSZN9QMetaType19registerMutableViewI5QListIiE9QIterableI13QMetaSequenceEN9QtPrivate37QSequentialIterableMutableViewFunctorIS2_EEEEbT1_EUlPvSA_E_@Base 6.0.0
 _ZTV11KFileWidget@Base 6.0.0
 _ZTV12KDirOperator@Base 6.0.0
 _ZTV12KNewFileMenu@Base 6.0.0
 _ZTV13KUrlNavigator@Base 6.0.0
 _ZTV15KFileCopyToMenu@Base 6.0.0
 _ZTV15KFilePlacesView@Base 6.0.0
 _ZTV16KFileFilterCombo@Base 6.0.0
 _ZTV16KFileMetaPreview@Base 6.0.0
 _ZTV16KFilePlacesModel@Base 6.0.0
 _ZTV17KFileCustomDialog@Base 6.0.0
 _ZTV17KImageFilePreview@Base 6.0.0
 _ZTV18KPreviewWidgetBase@Base 6.0.0
 _ZTV20KFilePlaceEditDialog@Base 6.0.0
 _ZTV21KFilePreviewGenerator@Base 6.0.0
 _ZTV22KNameAndUrlInputDialog@Base 6.0.0
 _ZTV24KDirSortFilterProxyModel@Base 6.0.0
 _ZTVN3KIO18DefaultViewAdapterE@Base 6.0.0
 (optional=templinst)_ZZN9QMetaType21registerConverterImplI5QListI4QUrlE9QIterableI13QMetaSequenceEEEbSt8functionIFbPKvPvEES_S_E10unregister@Base 6.0.0
 (optional=templinst)_ZZN9QMetaType21registerConverterImplI5QListIN3KIO8UDSEntryEE9QIterableI13QMetaSequenceEEEbSt8functionIFbPKvPvEES_S_E10unregister@Base 6.0.0
 (optional=templinst)_ZZN9QMetaType21registerConverterImplI5QListIiE9QIterableI13QMetaSequenceEEEbSt8functionIFbPKvPvEES_S_E10unregister@Base 6.0.0
 (optional=templinst)_ZZN9QMetaType23registerMutableViewImplI5QListI4QUrlE9QIterableI13QMetaSequenceEEEbSt8functionIFbPvS8_EES_S_E10unregister@Base 6.0.0
 (optional=templinst)_ZZN9QMetaType23registerMutableViewImplI5QListIN3KIO8UDSEntryEE9QIterableI13QMetaSequenceEEEbSt8functionIFbPvS9_EES_S_E10unregister@Base 6.0.0
 (optional=templinst)_ZZN9QMetaType23registerMutableViewImplI5QListIiE9QIterableI13QMetaSequenceEEEbSt8functionIFbPvS7_EES_S_E10unregister@Base 6.0.0
 (c++)"non-virtual thunk to KDirOperator::~KDirOperator()@Base" 6.0.0
 (c++)"non-virtual thunk to KFileCustomDialog::~KFileCustomDialog()@Base" 6.0.0
 (c++)"non-virtual thunk to KFileFilterCombo::~KFileFilterCombo()@Base" 6.0.0
 (c++)"non-virtual thunk to KFileMetaPreview::~KFileMetaPreview()@Base" 6.0.0
 (c++)"non-virtual thunk to KFilePlaceEditDialog::~KFilePlaceEditDialog()@Base" 6.0.0
 (c++)"non-virtual thunk to KFilePlacesView::~KFilePlacesView()@Base" 6.0.0
 (c++)"non-virtual thunk to KFileWidget::~KFileWidget()@Base" 6.0.0
 (c++)"non-virtual thunk to KImageFilePreview::~KImageFilePreview()@Base" 6.0.0
 (c++)"non-virtual thunk to KNameAndUrlInputDialog::~KNameAndUrlInputDialog()@Base" 6.0.0
 (c++)"non-virtual thunk to KPreviewWidgetBase::~KPreviewWidgetBase()@Base" 6.0.0
 (c++)"non-virtual thunk to KUrlNavigator::~KUrlNavigator()@Base" 6.0.0
